
EVE_Test.elf:     file format elf32-littlearm

Sections:
Idx Name          Size      VMA       LMA       File off  Algn
  0 .text         00003084  00000000  00000000  00010000  2**2
                  CONTENTS, ALLOC, LOAD, READONLY, CODE
  1 .relocate     0000042c  20000000  00003084  00020000  2**3
                  CONTENTS, ALLOC, LOAD, DATA
  2 .bss          00001084  20000430  000034c0  00020430  2**4
                  ALLOC
  3 .stack        00001004  200014b4  00004544  00020430  2**0
                  ALLOC
  4 .ARM.attributes 00000028  00000000  00000000  0002042c  2**0
                  CONTENTS, READONLY
  5 .comment      00000059  00000000  00000000  00020454  2**0
                  CONTENTS, READONLY
  6 .debug_info   00014383  00000000  00000000  000204ad  2**0
                  CONTENTS, READONLY, DEBUGGING
  7 .debug_abbrev 00000d9d  00000000  00000000  00034830  2**0
                  CONTENTS, READONLY, DEBUGGING
  8 .debug_loc    00008782  00000000  00000000  000355cd  2**0
                  CONTENTS, READONLY, DEBUGGING
  9 .debug_aranges 00000430  00000000  00000000  0003dd4f  2**0
                  CONTENTS, READONLY, DEBUGGING
 10 .debug_ranges 00003c28  00000000  00000000  0003e17f  2**0
                  CONTENTS, READONLY, DEBUGGING
 11 .debug_macro  00015894  00000000  00000000  00041da7  2**0
                  CONTENTS, READONLY, DEBUGGING
 12 .debug_line   00004f75  00000000  00000000  0005763b  2**0
                  CONTENTS, READONLY, DEBUGGING
 13 .debug_str    00081335  00000000  00000000  0005c5b0  2**0
                  CONTENTS, READONLY, DEBUGGING
 14 .debug_frame  00000fd8  00000000  00000000  000dd8e8  2**2
                  CONTENTS, READONLY, DEBUGGING

Disassembly of section .text:

00000000 <exception_table>:
       0:	b8 24 00 20 21 01 00 00 1d 01 00 00 1d 01 00 00     .$. !...........
	...
      2c:	1d 01 00 00 00 00 00 00 00 00 00 00 1d 01 00 00     ................
      3c:	61 12 00 00 1d 01 00 00 1d 01 00 00 1d 01 00 00     a...............
      4c:	1d 01 00 00 1d 01 00 00 1d 01 00 00 1d 01 00 00     ................
      5c:	fd 11 00 00 1d 01 00 00 1d 01 00 00 1d 01 00 00     ................
      6c:	1d 01 00 00 1d 01 00 00 00 00 00 00 00 00 00 00     ................
      7c:	1d 01 00 00 00 00 00 00 1d 01 00 00 1d 01 00 00     ................
      8c:	1d 01 00 00 1d 01 00 00 1d 01 00 00 1d 01 00 00     ................
      9c:	1d 01 00 00 1d 01 00 00 1d 01 00 00 1d 01 00 00     ................
      ac:	1d 01 00 00 1d 01 00 00 1d 01 00 00 1d 01 00 00     ................

000000bc <__do_global_dtors_aux>:
      bc:	b510      	push	{r4, lr}
      be:	4c06      	ldr	r4, [pc, #24]	; (d8 <__do_global_dtors_aux+0x1c>)
      c0:	7823      	ldrb	r3, [r4, #0]
      c2:	2b00      	cmp	r3, #0
      c4:	d107      	bne.n	d6 <__do_global_dtors_aux+0x1a>
      c6:	4b05      	ldr	r3, [pc, #20]	; (dc <__do_global_dtors_aux+0x20>)
      c8:	2b00      	cmp	r3, #0
      ca:	d002      	beq.n	d2 <__do_global_dtors_aux+0x16>
      cc:	4804      	ldr	r0, [pc, #16]	; (e0 <__do_global_dtors_aux+0x24>)
      ce:	e000      	b.n	d2 <__do_global_dtors_aux+0x16>
      d0:	bf00      	nop
      d2:	2301      	movs	r3, #1
      d4:	7023      	strb	r3, [r4, #0]
      d6:	bd10      	pop	{r4, pc}
      d8:	20000430 	.word	0x20000430
      dc:	00000000 	.word	0x00000000
      e0:	00003084 	.word	0x00003084

000000e4 <frame_dummy>:
      e4:	4b08      	ldr	r3, [pc, #32]	; (108 <frame_dummy+0x24>)
      e6:	b510      	push	{r4, lr}
      e8:	2b00      	cmp	r3, #0
      ea:	d003      	beq.n	f4 <frame_dummy+0x10>
      ec:	4907      	ldr	r1, [pc, #28]	; (10c <frame_dummy+0x28>)
      ee:	4808      	ldr	r0, [pc, #32]	; (110 <frame_dummy+0x2c>)
      f0:	e000      	b.n	f4 <frame_dummy+0x10>
      f2:	bf00      	nop
      f4:	4807      	ldr	r0, [pc, #28]	; (114 <frame_dummy+0x30>)
      f6:	6803      	ldr	r3, [r0, #0]
      f8:	2b00      	cmp	r3, #0
      fa:	d100      	bne.n	fe <frame_dummy+0x1a>
      fc:	bd10      	pop	{r4, pc}
      fe:	4b06      	ldr	r3, [pc, #24]	; (118 <frame_dummy+0x34>)
     100:	2b00      	cmp	r3, #0
     102:	d0fb      	beq.n	fc <frame_dummy+0x18>
     104:	4798      	blx	r3
     106:	e7f9      	b.n	fc <frame_dummy+0x18>
     108:	00000000 	.word	0x00000000
     10c:	20000434 	.word	0x20000434
     110:	00003084 	.word	0x00003084
     114:	00003084 	.word	0x00003084
     118:	00000000 	.word	0x00000000

0000011c <Dummy_Handler>:

/**
 * \brief Default interrupt handler for unused IRQs.
 */
void Dummy_Handler(void)
{
     11c:	e7fe      	b.n	11c <Dummy_Handler>
     11e:	46c0      	nop			; (mov r8, r8)

00000120 <Reset_Handler>:
        if (pSrc != pDest) {
     120:	4815      	ldr	r0, [pc, #84]	; (178 <Reset_Handler+0x58>)
     122:	4916      	ldr	r1, [pc, #88]	; (17c <Reset_Handler+0x5c>)
{
     124:	b510      	push	{r4, lr}
        if (pSrc != pDest) {
     126:	4288      	cmp	r0, r1
     128:	d00d      	beq.n	146 <Reset_Handler+0x26>
                for (; pDest < &_erelocate;) {
     12a:	4a15      	ldr	r2, [pc, #84]	; (180 <Reset_Handler+0x60>)
     12c:	4291      	cmp	r1, r2
     12e:	d20a      	bcs.n	146 <Reset_Handler+0x26>
     130:	43cb      	mvns	r3, r1
     132:	189b      	adds	r3, r3, r2
     134:	2200      	movs	r2, #0
     136:	089b      	lsrs	r3, r3, #2
     138:	3301      	adds	r3, #1
     13a:	009b      	lsls	r3, r3, #2
                        *pDest++ = *pSrc++;
     13c:	5884      	ldr	r4, [r0, r2]
     13e:	508c      	str	r4, [r1, r2]
     140:	3204      	adds	r2, #4
                for (; pDest < &_erelocate;) {
     142:	429a      	cmp	r2, r3
     144:	d1fa      	bne.n	13c <Reset_Handler+0x1c>
        for (pDest = &_szero; pDest < &_ezero;) {
     146:	4a0f      	ldr	r2, [pc, #60]	; (184 <Reset_Handler+0x64>)
     148:	490f      	ldr	r1, [pc, #60]	; (188 <Reset_Handler+0x68>)
     14a:	428a      	cmp	r2, r1
     14c:	d209      	bcs.n	162 <Reset_Handler+0x42>
     14e:	43d3      	mvns	r3, r2
     150:	185b      	adds	r3, r3, r1
     152:	2103      	movs	r1, #3
     154:	438b      	bics	r3, r1
                *pDest++ = 0;
     156:	2100      	movs	r1, #0
     158:	3304      	adds	r3, #4
     15a:	18d3      	adds	r3, r2, r3
     15c:	c202      	stmia	r2!, {r1}
        for (pDest = &_szero; pDest < &_ezero;) {
     15e:	429a      	cmp	r2, r3
     160:	d1fc      	bne.n	15c <Reset_Handler+0x3c>
        SCB->VTOR = ((uint32_t) pSrc & SCB_VTOR_TBLOFF_Msk);
     162:	21ff      	movs	r1, #255	; 0xff
     164:	4b09      	ldr	r3, [pc, #36]	; (18c <Reset_Handler+0x6c>)
     166:	4a0a      	ldr	r2, [pc, #40]	; (190 <Reset_Handler+0x70>)
     168:	438b      	bics	r3, r1
     16a:	6093      	str	r3, [r2, #8]
        __libc_init_array();
     16c:	4b09      	ldr	r3, [pc, #36]	; (194 <Reset_Handler+0x74>)
     16e:	4798      	blx	r3
        main();
     170:	4b09      	ldr	r3, [pc, #36]	; (198 <Reset_Handler+0x78>)
     172:	4798      	blx	r3
     174:	e7fe      	b.n	174 <Reset_Handler+0x54>
     176:	46c0      	nop			; (mov r8, r8)
     178:	00003084 	.word	0x00003084
     17c:	20000000 	.word	0x20000000
     180:	2000042c 	.word	0x2000042c
     184:	20000430 	.word	0x20000430
     188:	200014b4 	.word	0x200014b4
     18c:	00000000 	.word	0x00000000
     190:	e000ed00 	.word	0xe000ed00
     194:	000019f5 	.word	0x000019f5
     198:	00001355 	.word	0x00001355

0000019c <EVE_cmdWrite>:
			PORT->Group[EVE_CS_PORT].OUTCLR.reg = EVE_CS;
		}

		static inline void EVE_cs_clear(void)
		{
			PORT->Group[EVE_CS_PORT].OUTSET.reg = EVE_CS;
     19c:	2382      	movs	r3, #130	; 0x82
     19e:	2220      	movs	r2, #32
     1a0:	05db      	lsls	r3, r3, #23
 EVE_cmd_dl(VERTEX2F(0,0));
 EVE_cmd_dl(DL_BEGIN | EVE_RECTS);
*/
void EVE_cmd_dl(uint32_t command)
{
	if(!cmd_burst)
     1a2:	615a      	str	r2, [r3, #20]
     1a4:	4a0d      	ldr	r2, [pc, #52]	; (1dc <EVE_cmdWrite+0x40>)
     1a6:	6290      	str	r0, [r2, #40]	; 0x28
     1a8:	2002      	movs	r0, #2
	{
		EVE_start_command(command);
     1aa:	7e13      	ldrb	r3, [r2, #24]
     1ac:	4218      	tst	r0, r3
     1ae:	d0fc      	beq.n	1aa <EVE_cmdWrite+0xe>
     1b0:	6a93      	ldr	r3, [r2, #40]	; 0x28
     1b2:	6291      	str	r1, [r2, #40]	; 0x28
     1b4:	2102      	movs	r1, #2
     1b6:	4a09      	ldr	r2, [pc, #36]	; (1dc <EVE_cmdWrite+0x40>)
	if(!cmd_burst)
     1b8:	7e13      	ldrb	r3, [r2, #24]
     1ba:	4219      	tst	r1, r3
     1bc:	d0fc      	beq.n	1b8 <EVE_cmdWrite+0x1c>
     1be:	6a93      	ldr	r3, [r2, #40]	; 0x28

		/* draw Calibration Point on screen */
		EVE_cmd_dl(DL_COLOR_RGB | 0x0000ff);
		EVE_cmd_dl(POINT_SIZE(20*16));
		EVE_cmd_dl((DL_BEGIN | EVE_POINTS));
		EVE_cmd_dl(VERTEX2F((uint32_t)(displayX[count]) * 16, (uint32_t)((displayY[count])) * 16));
     1c0:	2300      	movs	r3, #0
     1c2:	2102      	movs	r1, #2
     1c4:	6293      	str	r3, [r2, #40]	; 0x28
     1c6:	4a05      	ldr	r2, [pc, #20]	; (1dc <EVE_cmdWrite+0x40>)
     1c8:	7e13      	ldrb	r3, [r2, #24]
     1ca:	4219      	tst	r1, r3
     1cc:	d0fc      	beq.n	1c8 <EVE_cmdWrite+0x2c>
     1ce:	6a93      	ldr	r3, [r2, #40]	; 0x28
     1d0:	2382      	movs	r3, #130	; 0x82
     1d2:	2220      	movs	r2, #32
     1d4:	05db      	lsls	r3, r3, #23
     1d6:	619a      	str	r2, [r3, #24]
		EVE_start_command(command);
     1d8:	4770      	bx	lr
     1da:	46c0      	nop			; (mov r8, r8)
     1dc:	42000400 	.word	0x42000400

000001e0 <EVE_memRead8>:
     1e0:	2382      	movs	r3, #130	; 0x82
     1e2:	2220      	movs	r2, #32
	if(!cmd_burst)
     1e4:	2102      	movs	r1, #2
     1e6:	05db      	lsls	r3, r3, #23
     1e8:	615a      	str	r2, [r3, #20]
     1ea:	0203      	lsls	r3, r0, #8
		EVE_start_command(command);
     1ec:	4a17      	ldr	r2, [pc, #92]	; (24c <EVE_memRead8+0x6c>)
     1ee:	0e1b      	lsrs	r3, r3, #24
     1f0:	6293      	str	r3, [r2, #40]	; 0x28
     1f2:	7e13      	ldrb	r3, [r2, #24]
     1f4:	4219      	tst	r1, r3
     1f6:	d0fc      	beq.n	1f2 <EVE_memRead8+0x12>
     1f8:	2102      	movs	r1, #2
     1fa:	6a93      	ldr	r3, [r2, #40]	; 0x28
	if(!cmd_burst)
     1fc:	0403      	lsls	r3, r0, #16
     1fe:	0e1b      	lsrs	r3, r3, #24
     200:	6293      	str	r3, [r2, #40]	; 0x28
     202:	4a12      	ldr	r2, [pc, #72]	; (24c <EVE_memRead8+0x6c>)
		EVE_start_command(command);
     204:	7e13      	ldrb	r3, [r2, #24]
     206:	4219      	tst	r1, r3
     208:	d0fc      	beq.n	204 <EVE_memRead8+0x24>
     20a:	6a93      	ldr	r3, [r2, #40]	; 0x28
     20c:	23ff      	movs	r3, #255	; 0xff
     20e:	2102      	movs	r1, #2
     210:	4018      	ands	r0, r3
	if(!cmd_burst)
     212:	6290      	str	r0, [r2, #40]	; 0x28
     214:	4a0d      	ldr	r2, [pc, #52]	; (24c <EVE_memRead8+0x6c>)
     216:	7e13      	ldrb	r3, [r2, #24]
     218:	4219      	tst	r1, r3
     21a:	d0fc      	beq.n	216 <EVE_memRead8+0x36>
     21c:	6a93      	ldr	r3, [r2, #40]	; 0x28
     21e:	2300      	movs	r3, #0
     220:	2102      	movs	r1, #2
     222:	6293      	str	r3, [r2, #40]	; 0x28
     224:	4a09      	ldr	r2, [pc, #36]	; (24c <EVE_memRead8+0x6c>)
     226:	7e13      	ldrb	r3, [r2, #24]
     228:	4219      	tst	r1, r3
     22a:	d0fc      	beq.n	226 <EVE_memRead8+0x46>
     22c:	6a93      	ldr	r3, [r2, #40]	; 0x28
     22e:	2300      	movs	r3, #0
     230:	2102      	movs	r1, #2
     232:	6293      	str	r3, [r2, #40]	; 0x28
     234:	4a05      	ldr	r2, [pc, #20]	; (24c <EVE_memRead8+0x6c>)
     236:	7e13      	ldrb	r3, [r2, #24]
     238:	4219      	tst	r1, r3
     23a:	d0fc      	beq.n	236 <EVE_memRead8+0x56>
     23c:	2382      	movs	r3, #130	; 0x82
     23e:	6a90      	ldr	r0, [r2, #40]	; 0x28
     240:	2220      	movs	r2, #32
     242:	05db      	lsls	r3, r3, #23
     244:	b2c0      	uxtb	r0, r0
     246:	619a      	str	r2, [r3, #24]
     248:	4770      	bx	lr
     24a:	46c0      	nop			; (mov r8, r8)
     24c:	42000400 	.word	0x42000400

00000250 <EVE_memRead16>:
     250:	2382      	movs	r3, #130	; 0x82
     252:	2220      	movs	r2, #32
     254:	2102      	movs	r1, #2
     256:	05db      	lsls	r3, r3, #23
     258:	b510      	push	{r4, lr}
     25a:	615a      	str	r2, [r3, #20]
     25c:	0203      	lsls	r3, r0, #8
     25e:	4a1d      	ldr	r2, [pc, #116]	; (2d4 <EVE_memRead16+0x84>)
     260:	0e1b      	lsrs	r3, r3, #24
     262:	6293      	str	r3, [r2, #40]	; 0x28
     264:	7e13      	ldrb	r3, [r2, #24]
     266:	4219      	tst	r1, r3
     268:	d0fc      	beq.n	264 <EVE_memRead16+0x14>
     26a:	2102      	movs	r1, #2
     26c:	6a93      	ldr	r3, [r2, #40]	; 0x28
     26e:	0403      	lsls	r3, r0, #16
     270:	0e1b      	lsrs	r3, r3, #24
     272:	6293      	str	r3, [r2, #40]	; 0x28
     274:	4a17      	ldr	r2, [pc, #92]	; (2d4 <EVE_memRead16+0x84>)
     276:	7e13      	ldrb	r3, [r2, #24]
     278:	4219      	tst	r1, r3
     27a:	d0fc      	beq.n	276 <EVE_memRead16+0x26>
     27c:	6a93      	ldr	r3, [r2, #40]	; 0x28
     27e:	23ff      	movs	r3, #255	; 0xff
     280:	2102      	movs	r1, #2
     282:	4018      	ands	r0, r3
     284:	6290      	str	r0, [r2, #40]	; 0x28
     286:	4a13      	ldr	r2, [pc, #76]	; (2d4 <EVE_memRead16+0x84>)
				}
			}
		}
	}

	k = ((touchX[0] - touchX[2])*(touchY[1] - touchY[2])) - ((touchX[1] - touchX[2])*(touchY[0] - touchY[2]));
     288:	7e13      	ldrb	r3, [r2, #24]

	tmp = (((displayX[0] - displayX[2]) * (touchY[1] - touchY[2])) - ((displayX[1] - displayX[2])*(touchY[0] - touchY[2])));
	TransMatrix[0] = ((int64_t)tmp << 16) / k;

	tmp = (((touchX[0] - touchX[2]) * (displayX[1] - displayX[2])) - ((displayX[0] - displayX[2])*(touchX[1] - touchX[2])));
     28a:	4219      	tst	r1, r3
	k = ((touchX[0] - touchX[2])*(touchY[1] - touchY[2])) - ((touchX[1] - touchX[2])*(touchY[0] - touchY[2]));
     28c:	d0fc      	beq.n	288 <EVE_memRead16+0x38>
     28e:	6a93      	ldr	r3, [r2, #40]	; 0x28
     290:	2300      	movs	r3, #0
     292:	2102      	movs	r1, #2
	tmp = (((touchX[0] - touchX[2]) * (displayX[1] - displayX[2])) - ((displayX[0] - displayX[2])*(touchX[1] - touchX[2])));
     294:	6293      	str	r3, [r2, #40]	; 0x28
	k = ((touchX[0] - touchX[2])*(touchY[1] - touchY[2])) - ((touchX[1] - touchX[2])*(touchY[0] - touchY[2]));
     296:	4a0f      	ldr	r2, [pc, #60]	; (2d4 <EVE_memRead16+0x84>)
     298:	7e13      	ldrb	r3, [r2, #24]
     29a:	4219      	tst	r1, r3
     29c:	d0fc      	beq.n	298 <EVE_memRead16+0x48>
     29e:	6a93      	ldr	r3, [r2, #40]	; 0x28
     2a0:	2300      	movs	r3, #0
     2a2:	2102      	movs	r1, #2
     2a4:	6293      	str	r3, [r2, #40]	; 0x28
     2a6:	4a0b      	ldr	r2, [pc, #44]	; (2d4 <EVE_memRead16+0x84>)
	tmp = (((touchX[0] - touchX[2]) * (displayX[1] - displayX[2])) - ((displayX[0] - displayX[2])*(touchX[1] - touchX[2])));
     2a8:	7e13      	ldrb	r3, [r2, #24]
	k = ((touchX[0] - touchX[2])*(touchY[1] - touchY[2])) - ((touchX[1] - touchX[2])*(touchY[0] - touchY[2]));
     2aa:	4219      	tst	r1, r3
     2ac:	d0fc      	beq.n	2a8 <EVE_memRead16+0x58>
     2ae:	2300      	movs	r3, #0
     2b0:	2102      	movs	r1, #2
     2b2:	6a94      	ldr	r4, [r2, #40]	; 0x28
     2b4:	6293      	str	r3, [r2, #40]	; 0x28
     2b6:	4a07      	ldr	r2, [pc, #28]	; (2d4 <EVE_memRead16+0x84>)
     2b8:	b2e4      	uxtb	r4, r4
     2ba:	7e13      	ldrb	r3, [r2, #24]
     2bc:	4219      	tst	r1, r3
     2be:	d0fc      	beq.n	2ba <EVE_memRead16+0x6a>
	tmp = (((touchX[0] - touchX[2]) * (displayX[1] - displayX[2])) - ((displayX[0] - displayX[2])*(touchX[1] - touchX[2])));
     2c0:	2382      	movs	r3, #130	; 0x82
     2c2:	6a90      	ldr	r0, [r2, #40]	; 0x28
	k = ((touchX[0] - touchX[2])*(touchY[1] - touchY[2])) - ((touchX[1] - touchX[2])*(touchY[0] - touchY[2]));
     2c4:	2220      	movs	r2, #32
	tmp = (((touchX[0] - touchX[2]) * (displayX[1] - displayX[2])) - ((displayX[0] - displayX[2])*(touchX[1] - touchX[2])));
     2c6:	0200      	lsls	r0, r0, #8
     2c8:	05db      	lsls	r3, r3, #23
	k = ((touchX[0] - touchX[2])*(touchY[1] - touchY[2])) - ((touchX[1] - touchX[2])*(touchY[0] - touchY[2]));
     2ca:	4320      	orrs	r0, r4
	TransMatrix[1] = ((int64_t)tmp << 16) / k;
     2cc:	b280      	uxth	r0, r0
	k = ((touchX[0] - touchX[2])*(touchY[1] - touchY[2])) - ((touchX[1] - touchX[2])*(touchY[0] - touchY[2]));
     2ce:	619a      	str	r2, [r3, #24]
     2d0:	bd10      	pop	{r4, pc}
	TransMatrix[0] = ((int64_t)tmp << 16) / k;
     2d2:	46c0      	nop			; (mov r8, r8)
	TransMatrix[1] = ((int64_t)tmp << 16) / k;
     2d4:	42000400 	.word	0x42000400

000002d8 <EVE_memWrite8>:
     2d8:	2382      	movs	r3, #130	; 0x82
	tmp = (((touchX[0] - touchX[2]) * (displayX[1] - displayX[2])) - ((displayX[0] - displayX[2])*(touchX[1] - touchX[2])));
     2da:	2220      	movs	r2, #32
	TransMatrix[1] = ((int64_t)tmp << 16) / k;
     2dc:	05db      	lsls	r3, r3, #23
     2de:	b510      	push	{r4, lr}
     2e0:	615a      	str	r2, [r3, #20]
     2e2:	2380      	movs	r3, #128	; 0x80
     2e4:	2402      	movs	r4, #2

	tmp = ((touchY[0] * (((touchX[2] * displayX[1]) - (touchX[1] * displayX[2])))) + (touchY[1] * (((touchX[0] * displayX[2]) - (touchX[2] * displayX[0])))) + (touchY[2] * (((touchX[1] * displayX[0]) - (touchX[0] * displayX[1])))));
     2e6:	0c02      	lsrs	r2, r0, #16
     2e8:	425b      	negs	r3, r3
     2ea:	4313      	orrs	r3, r2
     2ec:	4a12      	ldr	r2, [pc, #72]	; (338 <EVE_memWrite8+0x60>)
     2ee:	b2db      	uxtb	r3, r3
     2f0:	6293      	str	r3, [r2, #40]	; 0x28
	TransMatrix[1] = ((int64_t)tmp << 16) / k;
     2f2:	7e13      	ldrb	r3, [r2, #24]
	tmp = ((touchY[0] * (((touchX[2] * displayX[1]) - (touchX[1] * displayX[2])))) + (touchY[1] * (((touchX[0] * displayX[2]) - (touchX[2] * displayX[0])))) + (touchY[2] * (((touchX[1] * displayX[0]) - (touchX[0] * displayX[1])))));
     2f4:	421c      	tst	r4, r3
     2f6:	d0fc      	beq.n	2f2 <EVE_memWrite8+0x1a>
	TransMatrix[0] = ((int64_t)tmp << 16) / k;
     2f8:	2402      	movs	r4, #2
	tmp = ((touchY[0] * (((touchX[2] * displayX[1]) - (touchX[1] * displayX[2])))) + (touchY[1] * (((touchX[0] * displayX[2]) - (touchX[2] * displayX[0])))) + (touchY[2] * (((touchX[1] * displayX[0]) - (touchX[0] * displayX[1])))));
     2fa:	6a93      	ldr	r3, [r2, #40]	; 0x28
     2fc:	0403      	lsls	r3, r0, #16
     2fe:	0e1b      	lsrs	r3, r3, #24
     300:	6293      	str	r3, [r2, #40]	; 0x28
     302:	4a0d      	ldr	r2, [pc, #52]	; (338 <EVE_memWrite8+0x60>)
     304:	7e13      	ldrb	r3, [r2, #24]
     306:	421c      	tst	r4, r3
     308:	d0fc      	beq.n	304 <EVE_memWrite8+0x2c>
     30a:	6a93      	ldr	r3, [r2, #40]	; 0x28
     30c:	23ff      	movs	r3, #255	; 0xff
     30e:	4018      	ands	r0, r3
     310:	6290      	str	r0, [r2, #40]	; 0x28
     312:	2002      	movs	r0, #2
     314:	4a08      	ldr	r2, [pc, #32]	; (338 <EVE_memWrite8+0x60>)
     316:	7e13      	ldrb	r3, [r2, #24]
     318:	4218      	tst	r0, r3
     31a:	d0fc      	beq.n	316 <EVE_memWrite8+0x3e>
     31c:	6a93      	ldr	r3, [r2, #40]	; 0x28
     31e:	6291      	str	r1, [r2, #40]	; 0x28
     320:	2102      	movs	r1, #2
     322:	4a05      	ldr	r2, [pc, #20]	; (338 <EVE_memWrite8+0x60>)
     324:	7e13      	ldrb	r3, [r2, #24]
     326:	4219      	tst	r1, r3
     328:	d0fc      	beq.n	324 <EVE_memWrite8+0x4c>
     32a:	6a93      	ldr	r3, [r2, #40]	; 0x28
	TransMatrix[2] = ((int64_t)tmp << 16) / k;
     32c:	2382      	movs	r3, #130	; 0x82
     32e:	2220      	movs	r2, #32
     330:	05db      	lsls	r3, r3, #23
     332:	619a      	str	r2, [r3, #24]
     334:	bd10      	pop	{r4, pc}
     336:	46c0      	nop			; (mov r8, r8)
     338:	42000400 	.word	0x42000400

0000033c <EVE_memWrite16>:

	tmp = (((displayY[0] - displayY[2]) * (touchY[1] - touchY[2])) - ((displayY[1] - displayY[2])*(touchY[0] - touchY[2])));
     33c:	2382      	movs	r3, #130	; 0x82
     33e:	2220      	movs	r2, #32
     340:	05db      	lsls	r3, r3, #23
	TransMatrix[2] = ((int64_t)tmp << 16) / k;
     342:	b510      	push	{r4, lr}
	tmp = (((displayY[0] - displayY[2]) * (touchY[1] - touchY[2])) - ((displayY[1] - displayY[2])*(touchY[0] - touchY[2])));
     344:	615a      	str	r2, [r3, #20]
     346:	2380      	movs	r3, #128	; 0x80
     348:	2402      	movs	r4, #2
     34a:	0c02      	lsrs	r2, r0, #16
     34c:	425b      	negs	r3, r3
     34e:	4313      	orrs	r3, r2
     350:	4a16      	ldr	r2, [pc, #88]	; (3ac <EVE_memWrite16+0x70>)
     352:	b2db      	uxtb	r3, r3
     354:	6293      	str	r3, [r2, #40]	; 0x28
	TransMatrix[3] = ((int64_t)tmp << 16) / k;
     356:	7e13      	ldrb	r3, [r2, #24]
     358:	421c      	tst	r4, r3
     35a:	d0fc      	beq.n	356 <EVE_memWrite16+0x1a>
     35c:	2402      	movs	r4, #2
     35e:	6a93      	ldr	r3, [r2, #40]	; 0x28
     360:	0403      	lsls	r3, r0, #16
     362:	0e1b      	lsrs	r3, r3, #24
     364:	6293      	str	r3, [r2, #40]	; 0x28

	tmp = (((touchX[0] - touchX[2]) * (displayY[1] - displayY[2])) - ((displayY[0] - displayY[2])*(touchX[1] - touchX[2])));
     366:	4a11      	ldr	r2, [pc, #68]	; (3ac <EVE_memWrite16+0x70>)
	TransMatrix[3] = ((int64_t)tmp << 16) / k;
     368:	7e13      	ldrb	r3, [r2, #24]
	tmp = (((touchX[0] - touchX[2]) * (displayY[1] - displayY[2])) - ((displayY[0] - displayY[2])*(touchX[1] - touchX[2])));
     36a:	421c      	tst	r4, r3
     36c:	d0fc      	beq.n	368 <EVE_memWrite16+0x2c>
     36e:	6a93      	ldr	r3, [r2, #40]	; 0x28
     370:	23ff      	movs	r3, #255	; 0xff
	TransMatrix[4] = ((int64_t)tmp << 16) / k;
     372:	4018      	ands	r0, r3
     374:	6290      	str	r0, [r2, #40]	; 0x28
     376:	2002      	movs	r0, #2
     378:	4a0c      	ldr	r2, [pc, #48]	; (3ac <EVE_memWrite16+0x70>)
     37a:	7e13      	ldrb	r3, [r2, #24]
     37c:	4218      	tst	r0, r3
     37e:	d0fc      	beq.n	37a <EVE_memWrite16+0x3e>
     380:	2002      	movs	r0, #2

	tmp = ((touchY[0] * (((touchX[2] * displayY[1]) - (touchX[1] * displayY[2])))) + (touchY[1] * (((touchX[0] * displayY[2]) - (touchX[2] * displayY[0])))) + (touchY[2] * (((touchX[1] * displayY[0]) - (touchX[0] * displayY[1])))));
     382:	6a93      	ldr	r3, [r2, #40]	; 0x28
	TransMatrix[4] = ((int64_t)tmp << 16) / k;
     384:	b2cb      	uxtb	r3, r1
	tmp = ((touchY[0] * (((touchX[2] * displayY[1]) - (touchX[1] * displayY[2])))) + (touchY[1] * (((touchX[0] * displayY[2]) - (touchX[2] * displayY[0])))) + (touchY[2] * (((touchX[1] * displayY[0]) - (touchX[0] * displayY[1])))));
     386:	6293      	str	r3, [r2, #40]	; 0x28
     388:	4a08      	ldr	r2, [pc, #32]	; (3ac <EVE_memWrite16+0x70>)
     38a:	7e13      	ldrb	r3, [r2, #24]
     38c:	4218      	tst	r0, r3
     38e:	d0fc      	beq.n	38a <EVE_memWrite16+0x4e>
     390:	0a09      	lsrs	r1, r1, #8
     392:	6a93      	ldr	r3, [r2, #40]	; 0x28
     394:	6291      	str	r1, [r2, #40]	; 0x28
     396:	2102      	movs	r1, #2
     398:	4a04      	ldr	r2, [pc, #16]	; (3ac <EVE_memWrite16+0x70>)
     39a:	7e13      	ldrb	r3, [r2, #24]
     39c:	4219      	tst	r1, r3
     39e:	d0fc      	beq.n	39a <EVE_memWrite16+0x5e>
     3a0:	6a93      	ldr	r3, [r2, #40]	; 0x28
     3a2:	2382      	movs	r3, #130	; 0x82
     3a4:	2220      	movs	r2, #32
     3a6:	05db      	lsls	r3, r3, #23
     3a8:	619a      	str	r2, [r3, #24]
     3aa:	bd10      	pop	{r4, pc}
     3ac:	42000400 	.word	0x42000400

000003b0 <EVE_memWrite32>:
     3b0:	2382      	movs	r3, #130	; 0x82
     3b2:	2220      	movs	r2, #32
     3b4:	05db      	lsls	r3, r3, #23
     3b6:	b510      	push	{r4, lr}
     3b8:	615a      	str	r2, [r3, #20]
     3ba:	2380      	movs	r3, #128	; 0x80
     3bc:	2402      	movs	r4, #2
     3be:	0c02      	lsrs	r2, r0, #16
	TransMatrix[5] = ((int64_t)tmp << 16) / k;
     3c0:	425b      	negs	r3, r3
     3c2:	4313      	orrs	r3, r2
     3c4:	4a20      	ldr	r2, [pc, #128]	; (448 <EVE_memWrite32+0x98>)
     3c6:	b2db      	uxtb	r3, r3
     3c8:	6293      	str	r3, [r2, #40]	; 0x28
     3ca:	7e13      	ldrb	r3, [r2, #24]
     3cc:	421c      	tst	r4, r3
     3ce:	d0fc      	beq.n	3ca <EVE_memWrite32+0x1a>
	tmp = (((displayX[0] - displayX[2]) * (touchY[1] - touchY[2])) - ((displayX[1] - displayX[2])*(touchY[0] - touchY[2])));
     3d0:	2402      	movs	r4, #2
     3d2:	6a93      	ldr	r3, [r2, #40]	; 0x28
	TransMatrix[5] = ((int64_t)tmp << 16) / k;
     3d4:	0403      	lsls	r3, r0, #16
	tmp = (((displayX[0] - displayX[2]) * (touchY[1] - touchY[2])) - ((displayX[1] - displayX[2])*(touchY[0] - touchY[2])));
     3d6:	0e1b      	lsrs	r3, r3, #24
     3d8:	6293      	str	r3, [r2, #40]	; 0x28
     3da:	4a1b      	ldr	r2, [pc, #108]	; (448 <EVE_memWrite32+0x98>)
     3dc:	7e13      	ldrb	r3, [r2, #24]
     3de:	421c      	tst	r4, r3
     3e0:	d0fc      	beq.n	3dc <EVE_memWrite32+0x2c>
     3e2:	6a93      	ldr	r3, [r2, #40]	; 0x28
	TransMatrix[0] = ((int64_t)tmp << 16) / k;
     3e4:	23ff      	movs	r3, #255	; 0xff
     3e6:	4018      	ands	r0, r3
     3e8:	6290      	str	r0, [r2, #40]	; 0x28
     3ea:	2002      	movs	r0, #2
     3ec:	4a16      	ldr	r2, [pc, #88]	; (448 <EVE_memWrite32+0x98>)
     3ee:	7e13      	ldrb	r3, [r2, #24]
     3f0:	4218      	tst	r0, r3
     3f2:	d0fc      	beq.n	3ee <EVE_memWrite32+0x3e>

	EVE_memWrite32(REG_TOUCH_TRANSFORM_A, TransMatrix[0]);
     3f4:	6a93      	ldr	r3, [r2, #40]	; 0x28
	TransMatrix[0] = ((int64_t)tmp << 16) / k;
     3f6:	23ff      	movs	r3, #255	; 0xff
	EVE_memWrite32(REG_TOUCH_TRANSFORM_A, TransMatrix[0]);
     3f8:	2002      	movs	r0, #2
     3fa:	400b      	ands	r3, r1
	EVE_memWrite32(REG_TOUCH_TRANSFORM_B, TransMatrix[1]);
     3fc:	6293      	str	r3, [r2, #40]	; 0x28
     3fe:	4a12      	ldr	r2, [pc, #72]	; (448 <EVE_memWrite32+0x98>)
     400:	7e13      	ldrb	r3, [r2, #24]
	EVE_memWrite32(REG_TOUCH_TRANSFORM_C, TransMatrix[2]);
     402:	4218      	tst	r0, r3
     404:	d0fc      	beq.n	400 <EVE_memWrite32+0x50>
     406:	2002      	movs	r0, #2
	EVE_memWrite32(REG_TOUCH_TRANSFORM_D, TransMatrix[3]);
     408:	6a93      	ldr	r3, [r2, #40]	; 0x28
     40a:	040b      	lsls	r3, r1, #16
     40c:	0e1b      	lsrs	r3, r3, #24
	EVE_memWrite32(REG_TOUCH_TRANSFORM_E, TransMatrix[4]);
     40e:	6293      	str	r3, [r2, #40]	; 0x28
     410:	4a0d      	ldr	r2, [pc, #52]	; (448 <EVE_memWrite32+0x98>)
     412:	7e13      	ldrb	r3, [r2, #24]
	EVE_memWrite32(REG_TOUCH_TRANSFORM_F, TransMatrix[5]);
     414:	4218      	tst	r0, r3
     416:	d0fc      	beq.n	412 <EVE_memWrite32+0x62>
     418:	2002      	movs	r0, #2
}
     41a:	6a93      	ldr	r3, [r2, #40]	; 0x28
     41c:	020b      	lsls	r3, r1, #8
     41e:	0e1b      	lsrs	r3, r3, #24
     420:	6293      	str	r3, [r2, #40]	; 0x28
     422:	4a09      	ldr	r2, [pc, #36]	; (448 <EVE_memWrite32+0x98>)
     424:	7e13      	ldrb	r3, [r2, #24]
     426:	4218      	tst	r0, r3
		EVE_start_command(command);
     428:	d0fc      	beq.n	424 <EVE_memWrite32+0x74>
     42a:	0e09      	lsrs	r1, r1, #24
     42c:	6a93      	ldr	r3, [r2, #40]	; 0x28
     42e:	6291      	str	r1, [r2, #40]	; 0x28
     430:	2102      	movs	r1, #2
     432:	4a05      	ldr	r2, [pc, #20]	; (448 <EVE_memWrite32+0x98>)
     434:	7e13      	ldrb	r3, [r2, #24]
     436:	4219      	tst	r1, r3
     438:	d0fc      	beq.n	434 <EVE_memWrite32+0x84>
     43a:	6a93      	ldr	r3, [r2, #40]	; 0x28
     43c:	2382      	movs	r3, #130	; 0x82
     43e:	2220      	movs	r2, #32
     440:	05db      	lsls	r3, r3, #23
     442:	619a      	str	r2, [r3, #24]
     444:	bd10      	pop	{r4, pc}
     446:	46c0      	nop			; (mov r8, r8)
     448:	42000400 	.word	0x42000400

0000044c <EVE_busy.part.1>:
     44c:	b570      	push	{r4, r5, r6, lr}
     44e:	4810      	ldr	r0, [pc, #64]	; (490 <EVE_busy.part.1+0x44>)
     450:	4b10      	ldr	r3, [pc, #64]	; (494 <EVE_busy.part.1+0x48>)
     452:	4798      	blx	r3
     454:	0004      	movs	r4, r0
     456:	0783      	lsls	r3, r0, #30
     458:	d106      	bne.n	468 <EVE_busy.part.1+0x1c>
     45a:	4b0f      	ldr	r3, [pc, #60]	; (498 <EVE_busy.part.1+0x4c>)
     45c:	469c      	mov	ip, r3
     45e:	4464      	add	r4, ip
     460:	1e60      	subs	r0, r4, #1
     462:	4184      	sbcs	r4, r0
     464:	b2e0      	uxtb	r0, r4
     466:	bd70      	pop	{r4, r5, r6, pc}
     468:	2101      	movs	r1, #1
     46a:	480c      	ldr	r0, [pc, #48]	; (49c <EVE_busy.part.1+0x50>)
     46c:	4d0c      	ldr	r5, [pc, #48]	; (4a0 <EVE_busy.part.1+0x54>)
     46e:	47a8      	blx	r5
     470:	4e0c      	ldr	r6, [pc, #48]	; (4a4 <EVE_busy.part.1+0x58>)
     472:	2100      	movs	r1, #0
     474:	480c      	ldr	r0, [pc, #48]	; (4a8 <EVE_busy.part.1+0x5c>)
     476:	47b0      	blx	r6
     478:	2100      	movs	r1, #0
     47a:	480c      	ldr	r0, [pc, #48]	; (4ac <EVE_busy.part.1+0x60>)
     47c:	47b0      	blx	r6
     47e:	2100      	movs	r1, #0
     480:	480b      	ldr	r0, [pc, #44]	; (4b0 <EVE_busy.part.1+0x64>)
     482:	4b0c      	ldr	r3, [pc, #48]	; (4b4 <EVE_busy.part.1+0x68>)
     484:	4798      	blx	r3
     486:	2100      	movs	r1, #0
     488:	4804      	ldr	r0, [pc, #16]	; (49c <EVE_busy.part.1+0x50>)
     48a:	47a8      	blx	r5
     48c:	e7e5      	b.n	45a <EVE_busy.part.1+0xe>
     48e:	46c0      	nop			; (mov r8, r8)
		EVE_memWrite8(REG_CPURESET, 0);  /* set REG_CMD_WRITE to 0 to restart the co-processor engine*/
     490:	00302574 	.word	0x00302574
     494:	00000251 	.word	0x00000251
     498:	fffff004 	.word	0xfffff004
     49c:	00302020 	.word	0x00302020
     4a0:	000002d9 	.word	0x000002d9
     4a4:	0000033d 	.word	0x0000033d
     4a8:	003020f8 	.word	0x003020f8
     4ac:	003020fc 	.word	0x003020fc
     4b0:	00302100 	.word	0x00302100
     4b4:	000003b1 	.word	0x000003b1

000004b8 <EVE_busy>:
{
     4b8:	b510      	push	{r4, lr}
	if(EVE_dma_busy)
     4ba:	4b04      	ldr	r3, [pc, #16]	; (4cc <EVE_busy+0x14>)
		return 1;
     4bc:	2001      	movs	r0, #1
	if(EVE_dma_busy)
     4be:	781b      	ldrb	r3, [r3, #0]
     4c0:	2b00      	cmp	r3, #0
     4c2:	d101      	bne.n	4c8 <EVE_busy+0x10>
     4c4:	4b02      	ldr	r3, [pc, #8]	; (4d0 <EVE_busy+0x18>)
     4c6:	4798      	blx	r3
}
     4c8:	bd10      	pop	{r4, pc}
     4ca:	46c0      	nop			; (mov r8, r8)
     4cc:	20000470 	.word	0x20000470
     4d0:	0000044d 	.word	0x0000044d

000004d4 <spi_flash_write>:
	padding = len & 0x03; /* 0, 1, 2 or 3 */
     4d4:	2203      	movs	r2, #3
{
     4d6:	b530      	push	{r4, r5, lr}
	padding = len & 0x03; /* 0, 1, 2 or 3 */
     4d8:	0014      	movs	r4, r2
	padding = 4-padding; /* 4, 3, 2 or 1 */
     4da:	2304      	movs	r3, #4
	padding = len & 0x03; /* 0, 1, 2 or 3 */
     4dc:	400c      	ands	r4, r1
	padding = 4-padding; /* 4, 3, 2 or 1 */
     4de:	1b1c      	subs	r4, r3, r4
	padding &= 3; /* 3, 2 or 1 */
     4e0:	4014      	ands	r4, r2
	for(count=0;count<len;count++)
     4e2:	2900      	cmp	r1, #0
     4e4:	d00e      	beq.n	504 <spi_flash_write+0x30>
     4e6:	3901      	subs	r1, #1
     4e8:	b28d      	uxth	r5, r1
		}

		static inline void spi_transmit(uint8_t data)
		{
			EVE_SPI->SPI.DATA.reg = data;
			while((EVE_SPI->SPI.INTFLAG.reg & SERCOM_SPI_INTFLAG_TXC) == 0);
     4ea:	2102      	movs	r1, #2
     4ec:	3501      	adds	r5, #1
			EVE_SPI->SPI.DATA.reg = data;
     4ee:	4a0d      	ldr	r2, [pc, #52]	; (524 <spi_flash_write+0x50>)
     4f0:	1945      	adds	r5, r0, r5
     4f2:	7803      	ldrb	r3, [r0, #0]
     4f4:	6293      	str	r3, [r2, #40]	; 0x28
			while((EVE_SPI->SPI.INTFLAG.reg & SERCOM_SPI_INTFLAG_TXC) == 0);
     4f6:	7e13      	ldrb	r3, [r2, #24]
     4f8:	4219      	tst	r1, r3
     4fa:	d0fc      	beq.n	4f6 <spi_flash_write+0x22>
     4fc:	3001      	adds	r0, #1
			(void) EVE_SPI->SPI.DATA.reg; /* dummy read-access to clear SERCOM_SPI_INTFLAG_RXC */
     4fe:	6a93      	ldr	r3, [r2, #40]	; 0x28
     500:	42a8      	cmp	r0, r5
     502:	d1f6      	bne.n	4f2 <spi_flash_write+0x1e>
	while(padding > 0)
     504:	2c00      	cmp	r4, #0
     506:	d00b      	beq.n	520 <spi_flash_write+0x4c>
			EVE_SPI->SPI.DATA.reg = data;
     508:	2000      	movs	r0, #0
			while((EVE_SPI->SPI.INTFLAG.reg & SERCOM_SPI_INTFLAG_TXC) == 0);
     50a:	2102      	movs	r1, #2
			EVE_SPI->SPI.DATA.reg = data;
     50c:	4a05      	ldr	r2, [pc, #20]	; (524 <spi_flash_write+0x50>)
     50e:	6290      	str	r0, [r2, #40]	; 0x28
			while((EVE_SPI->SPI.INTFLAG.reg & SERCOM_SPI_INTFLAG_TXC) == 0);
     510:	7e13      	ldrb	r3, [r2, #24]
     512:	4219      	tst	r1, r3
     514:	d0fc      	beq.n	510 <spi_flash_write+0x3c>
		padding--;
     516:	3c01      	subs	r4, #1
     518:	b2e4      	uxtb	r4, r4
			(void) EVE_SPI->SPI.DATA.reg; /* dummy read-access to clear SERCOM_SPI_INTFLAG_RXC */
     51a:	6a93      	ldr	r3, [r2, #40]	; 0x28
	while(padding > 0)
     51c:	2c00      	cmp	r4, #0
     51e:	d1f6      	bne.n	50e <spi_flash_write+0x3a>
}
     520:	bd30      	pop	{r4, r5, pc}
     522:	46c0      	nop			; (mov r8, r8)
     524:	42000400 	.word	0x42000400

00000528 <block_transfer>:
{
     528:	b5f0      	push	{r4, r5, r6, r7, lr}
     52a:	4657      	mov	r7, sl
     52c:	46de      	mov	lr, fp
     52e:	464e      	mov	r6, r9
     530:	4645      	mov	r5, r8
     532:	b5e0      	push	{r5, r6, r7, lr}
     534:	4682      	mov	sl, r0
     536:	b083      	sub	sp, #12
     538:	1e0f      	subs	r7, r1, #0
	while(bytes_left > 0)
     53a:	d037      	beq.n	5ac <block_transfer+0x84>
     53c:	4b1f      	ldr	r3, [pc, #124]	; (5bc <block_transfer+0x94>)
			while((EVE_SPI->SPI.INTFLAG.reg & SERCOM_SPI_INTFLAG_TXC) == 0);
     53e:	2502      	movs	r5, #2
     540:	4699      	mov	r9, r3
			PORT->Group[EVE_CS_PORT].OUTCLR.reg = EVE_CS;
     542:	2382      	movs	r3, #130	; 0x82
     544:	05db      	lsls	r3, r3, #23
     546:	469b      	mov	fp, r3
     548:	4e1d      	ldr	r6, [pc, #116]	; (5c0 <block_transfer+0x98>)
			EVE_SPI->SPI.DATA.reg = data;
     54a:	4c1e      	ldr	r4, [pc, #120]	; (5c4 <block_transfer+0x9c>)
		block_len = bytes_left>3840 ? 3840:bytes_left;
     54c:	23f0      	movs	r3, #240	; 0xf0
     54e:	46b8      	mov	r8, r7
     550:	011b      	lsls	r3, r3, #4
     552:	429f      	cmp	r7, r3
     554:	d900      	bls.n	558 <block_transfer+0x30>
     556:	4698      	mov	r8, r3
			PORT->Group[EVE_CS_PORT].OUTCLR.reg = EVE_CS;
     558:	465b      	mov	r3, fp
     55a:	2220      	movs	r2, #32
     55c:	615a      	str	r2, [r3, #20]
			EVE_SPI->SPI.DATA.reg = data;
     55e:	23b0      	movs	r3, #176	; 0xb0
     560:	62a3      	str	r3, [r4, #40]	; 0x28
			while((EVE_SPI->SPI.INTFLAG.reg & SERCOM_SPI_INTFLAG_TXC) == 0);
     562:	7e23      	ldrb	r3, [r4, #24]
     564:	421d      	tst	r5, r3
     566:	d0fc      	beq.n	562 <block_transfer+0x3a>
			(void) EVE_SPI->SPI.DATA.reg; /* dummy read-access to clear SERCOM_SPI_INTFLAG_RXC */
     568:	6aa3      	ldr	r3, [r4, #40]	; 0x28
			EVE_SPI->SPI.DATA.reg = data;
     56a:	2325      	movs	r3, #37	; 0x25
     56c:	62a3      	str	r3, [r4, #40]	; 0x28
			while((EVE_SPI->SPI.INTFLAG.reg & SERCOM_SPI_INTFLAG_TXC) == 0);
     56e:	7e23      	ldrb	r3, [r4, #24]
     570:	421d      	tst	r5, r3
     572:	d0fc      	beq.n	56e <block_transfer+0x46>
			(void) EVE_SPI->SPI.DATA.reg; /* dummy read-access to clear SERCOM_SPI_INTFLAG_RXC */
     574:	6aa3      	ldr	r3, [r4, #40]	; 0x28
			EVE_SPI->SPI.DATA.reg = data;
     576:	2378      	movs	r3, #120	; 0x78
     578:	62a3      	str	r3, [r4, #40]	; 0x28
			while((EVE_SPI->SPI.INTFLAG.reg & SERCOM_SPI_INTFLAG_TXC) == 0);
     57a:	7e23      	ldrb	r3, [r4, #24]
     57c:	421d      	tst	r5, r3
     57e:	d0fc      	beq.n	57a <block_transfer+0x52>
		spi_flash_write(data,block_len);
     580:	466a      	mov	r2, sp
			(void) EVE_SPI->SPI.DATA.reg; /* dummy read-access to clear SERCOM_SPI_INTFLAG_RXC */
     582:	6aa3      	ldr	r3, [r4, #40]	; 0x28
     584:	4643      	mov	r3, r8
     586:	80d3      	strh	r3, [r2, #6]
     588:	88d1      	ldrh	r1, [r2, #6]
     58a:	4650      	mov	r0, sl
     58c:	4b0e      	ldr	r3, [pc, #56]	; (5c8 <block_transfer+0xa0>)
     58e:	4798      	blx	r3
			PORT->Group[EVE_CS_PORT].OUTSET.reg = EVE_CS;
     590:	465b      	mov	r3, fp
     592:	2220      	movs	r2, #32
     594:	619a      	str	r2, [r3, #24]
		bytes_left -= block_len;
     596:	4643      	mov	r3, r8
		data += block_len;
     598:	44c2      	add	sl, r8
		bytes_left -= block_len;
     59a:	1aff      	subs	r7, r7, r3
	if(EVE_dma_busy)
     59c:	7833      	ldrb	r3, [r6, #0]
     59e:	2b00      	cmp	r3, #0
     5a0:	d1fc      	bne.n	59c <block_transfer+0x74>
     5a2:	47c8      	blx	r9
		while (EVE_busy());
     5a4:	2800      	cmp	r0, #0
     5a6:	d1f9      	bne.n	59c <block_transfer+0x74>
	while(bytes_left > 0)
     5a8:	2f00      	cmp	r7, #0
     5aa:	d1cf      	bne.n	54c <block_transfer+0x24>
}
     5ac:	b003      	add	sp, #12
     5ae:	bc3c      	pop	{r2, r3, r4, r5}
     5b0:	4690      	mov	r8, r2
     5b2:	4699      	mov	r9, r3
     5b4:	46a2      	mov	sl, r4
     5b6:	46ab      	mov	fp, r5
     5b8:	bdf0      	pop	{r4, r5, r6, r7, pc}
     5ba:	46c0      	nop			; (mov r8, r8)
     5bc:	0000044d 	.word	0x0000044d
     5c0:	20000470 	.word	0x20000470
     5c4:	42000400 	.word	0x42000400
     5c8:	000004d5 	.word	0x000004d5

000005cc <EVE_init>:
{
     5cc:	b5f0      	push	{r4, r5, r6, r7, lr}
			PORT->Group[EVE_PDN_PORT].OUTCLR.reg = EVE_PDN;
     5ce:	2482      	movs	r4, #130	; 0x82
     5d0:	46c6      	mov	lr, r8
     5d2:	2608      	movs	r6, #8
     5d4:	05e4      	lsls	r4, r4, #23
     5d6:	b500      	push	{lr}
	DELAY_MS(6); /* minimum time for power-down is 5ms */
     5d8:	4d70      	ldr	r5, [pc, #448]	; (79c <EVE_init+0x1d0>)
     5da:	6166      	str	r6, [r4, #20]
     5dc:	2006      	movs	r0, #6
     5de:	47a8      	blx	r5
			PORT->Group[EVE_PDN_PORT].OUTSET.reg = EVE_PDN;
     5e0:	61a6      	str	r6, [r4, #24]
	DELAY_MS(21); /* minimum time to allow from rising PD_N to first access is 20ms */
     5e2:	2015      	movs	r0, #21
     5e4:	47a8      	blx	r5
	EVE_cmdWrite(EVE_CLKINT,0);	/* setup EVE for internal clock */
     5e6:	4c6e      	ldr	r4, [pc, #440]	; (7a0 <EVE_init+0x1d4>)
     5e8:	2100      	movs	r1, #0
     5ea:	2048      	movs	r0, #72	; 0x48
     5ec:	47a0      	blx	r4
	EVE_cmdWrite(EVE_ACTIVE,0);	/* start EVE */
     5ee:	2100      	movs	r1, #0
     5f0:	2000      	movs	r0, #0
     5f2:	47a0      	blx	r4
		chipid = EVE_memRead8(REG_ID);
     5f4:	24c8      	movs	r4, #200	; 0xc8
	DELAY_MS(40);
     5f6:	2028      	movs	r0, #40	; 0x28
     5f8:	47a8      	blx	r5
		DELAY_MS(1);
     5fa:	2001      	movs	r0, #1
     5fc:	47a8      	blx	r5
		chipid = EVE_memRead8(REG_ID);
     5fe:	4869      	ldr	r0, [pc, #420]	; (7a4 <EVE_init+0x1d8>)
     600:	4e69      	ldr	r6, [pc, #420]	; (7a8 <EVE_init+0x1dc>)
     602:	47b0      	blx	r6
     604:	0064      	lsls	r4, r4, #1
     606:	e008      	b.n	61a <EVE_init+0x4e>
		DELAY_MS(1);
     608:	2001      	movs	r0, #1
     60a:	3c01      	subs	r4, #1
     60c:	47a8      	blx	r5
     60e:	b2a4      	uxth	r4, r4
		chipid = EVE_memRead8(REG_ID);
     610:	4864      	ldr	r0, [pc, #400]	; (7a4 <EVE_init+0x1d8>)
     612:	47b0      	blx	r6
		if(timeout > 400)
     614:	2c00      	cmp	r4, #0
     616:	d100      	bne.n	61a <EVE_init+0x4e>
     618:	e0be      	b.n	798 <EVE_init+0x1cc>
	while(chipid != 0x7C) /* if chipid is not 0x7c, continue to read it until it is, EVE needs a moment for it's power on self-test and configuration */
     61a:	287c      	cmp	r0, #124	; 0x7c
     61c:	d1f4      	bne.n	608 <EVE_init+0x3c>
     61e:	2433      	movs	r4, #51	; 0x33
	while (0x00 != (EVE_memRead8(REG_CPURESET) & 0x03)) /* check if EVE is in working status */
     620:	2703      	movs	r7, #3
     622:	e006      	b.n	632 <EVE_init+0x66>
     624:	3c01      	subs	r4, #1
		DELAY_MS(1);
     626:	2001      	movs	r0, #1
     628:	b2a4      	uxth	r4, r4
     62a:	47a8      	blx	r5
		if(timeout > 50) /* experimental, 10 was the lowest value to get the BT815 started with, the touch-controller was the last to get out of reset */
     62c:	2c00      	cmp	r4, #0
     62e:	d100      	bne.n	632 <EVE_init+0x66>
     630:	e0b2      	b.n	798 <EVE_init+0x1cc>
	while (0x00 != (EVE_memRead8(REG_CPURESET) & 0x03)) /* check if EVE is in working status */
     632:	485e      	ldr	r0, [pc, #376]	; (7ac <EVE_init+0x1e0>)
     634:	47b0      	blx	r6
     636:	4207      	tst	r7, r0
     638:	d1f4      	bne.n	624 <EVE_init+0x58>
			PORT->Group[EVE_CS_PORT].OUTCLR.reg = EVE_CS;
     63a:	2382      	movs	r3, #130	; 0x82
     63c:	2220      	movs	r2, #32
     63e:	05db      	lsls	r3, r3, #23
     640:	615a      	str	r2, [r3, #20]
			EVE_SPI->SPI.DATA.reg = data;
     642:	23b0      	movs	r3, #176	; 0xb0
			while((EVE_SPI->SPI.INTFLAG.reg & SERCOM_SPI_INTFLAG_TXC) == 0);
     644:	2102      	movs	r1, #2
			EVE_SPI->SPI.DATA.reg = data;
     646:	4a5a      	ldr	r2, [pc, #360]	; (7b0 <EVE_init+0x1e4>)
     648:	6293      	str	r3, [r2, #40]	; 0x28
			while((EVE_SPI->SPI.INTFLAG.reg & SERCOM_SPI_INTFLAG_TXC) == 0);
     64a:	7e13      	ldrb	r3, [r2, #24]
     64c:	4219      	tst	r1, r3
     64e:	d0fc      	beq.n	64a <EVE_init+0x7e>
			(void) EVE_SPI->SPI.DATA.reg; /* dummy read-access to clear SERCOM_SPI_INTFLAG_RXC */
     650:	6a93      	ldr	r3, [r2, #40]	; 0x28
			EVE_SPI->SPI.DATA.reg = data;
     652:	2325      	movs	r3, #37	; 0x25
			while((EVE_SPI->SPI.INTFLAG.reg & SERCOM_SPI_INTFLAG_TXC) == 0);
     654:	2102      	movs	r1, #2
			EVE_SPI->SPI.DATA.reg = data;
     656:	6293      	str	r3, [r2, #40]	; 0x28
			while((EVE_SPI->SPI.INTFLAG.reg & SERCOM_SPI_INTFLAG_TXC) == 0);
     658:	4a55      	ldr	r2, [pc, #340]	; (7b0 <EVE_init+0x1e4>)
     65a:	7e13      	ldrb	r3, [r2, #24]
     65c:	4219      	tst	r1, r3
     65e:	d0fc      	beq.n	65a <EVE_init+0x8e>
			(void) EVE_SPI->SPI.DATA.reg; /* dummy read-access to clear SERCOM_SPI_INTFLAG_RXC */
     660:	6a93      	ldr	r3, [r2, #40]	; 0x28
			EVE_SPI->SPI.DATA.reg = data;
     662:	2378      	movs	r3, #120	; 0x78
			while((EVE_SPI->SPI.INTFLAG.reg & SERCOM_SPI_INTFLAG_TXC) == 0);
     664:	2102      	movs	r1, #2
			EVE_SPI->SPI.DATA.reg = data;
     666:	6293      	str	r3, [r2, #40]	; 0x28
			while((EVE_SPI->SPI.INTFLAG.reg & SERCOM_SPI_INTFLAG_TXC) == 0);
     668:	4a51      	ldr	r2, [pc, #324]	; (7b0 <EVE_init+0x1e4>)
     66a:	7e13      	ldrb	r3, [r2, #24]
     66c:	4219      	tst	r1, r3
     66e:	d0fc      	beq.n	66a <EVE_init+0x9e>
		spi_flash_write(EVE_GT911_data, EVE_GT911_len);
     670:	2194      	movs	r1, #148	; 0x94
			(void) EVE_SPI->SPI.DATA.reg; /* dummy read-access to clear SERCOM_SPI_INTFLAG_RXC */
     672:	6a93      	ldr	r3, [r2, #40]	; 0x28
     674:	00c9      	lsls	r1, r1, #3
     676:	4b4f      	ldr	r3, [pc, #316]	; (7b4 <EVE_init+0x1e8>)
     678:	484f      	ldr	r0, [pc, #316]	; (7b8 <EVE_init+0x1ec>)
     67a:	4798      	blx	r3
			PORT->Group[EVE_CS_PORT].OUTSET.reg = EVE_CS;
     67c:	2382      	movs	r3, #130	; 0x82
     67e:	2220      	movs	r2, #32
     680:	05db      	lsls	r3, r3, #23
     682:	619a      	str	r2, [r3, #24]
     684:	4b4d      	ldr	r3, [pc, #308]	; (7bc <EVE_init+0x1f0>)
     686:	4e4e      	ldr	r6, [pc, #312]	; (7c0 <EVE_init+0x1f4>)
     688:	4698      	mov	r8, r3
	if(EVE_dma_busy)
     68a:	7833      	ldrb	r3, [r6, #0]
     68c:	2b00      	cmp	r3, #0
     68e:	d1fc      	bne.n	68a <EVE_init+0xbe>
     690:	47c0      	blx	r8
		while (EVE_busy());
     692:	2800      	cmp	r0, #0
     694:	d1f9      	bne.n	68a <EVE_init+0xbe>
		EVE_memWrite8(REG_TOUCH_OVERSAMPLE, 0x0f); /* setup oversample to 0x0f as "hidden" in binary-blob for AN_336 */
     696:	4f4b      	ldr	r7, [pc, #300]	; (7c4 <EVE_init+0x1f8>)
     698:	210f      	movs	r1, #15
     69a:	484b      	ldr	r0, [pc, #300]	; (7c8 <EVE_init+0x1fc>)
     69c:	47b8      	blx	r7
		EVE_memWrite16(REG_TOUCH_CONFIG, 0x05D0); /* write magic cookie as requested by AN_336 */
     69e:	21ba      	movs	r1, #186	; 0xba
     6a0:	4c4a      	ldr	r4, [pc, #296]	; (7cc <EVE_init+0x200>)
     6a2:	00c9      	lsls	r1, r1, #3
     6a4:	484a      	ldr	r0, [pc, #296]	; (7d0 <EVE_init+0x204>)
     6a6:	47a0      	blx	r4
		EVE_memWrite16(REG_GPIOX_DIR,0x8008); /* Reset-Value is 0x8000, adding 0x08 sets GPIO3 to output, default-value for REG_GPIOX is 0x8000 -> Low output on GPIO3 */
     6a8:	494a      	ldr	r1, [pc, #296]	; (7d4 <EVE_init+0x208>)
     6aa:	484b      	ldr	r0, [pc, #300]	; (7d8 <EVE_init+0x20c>)
     6ac:	47a0      	blx	r4
		DELAY_MS(1); /* wait more than 100ï¿½s */
     6ae:	2001      	movs	r0, #1
     6b0:	47a8      	blx	r5
		EVE_memWrite8(REG_CPURESET, 0x00); /* clear all resets */
     6b2:	2100      	movs	r1, #0
     6b4:	483d      	ldr	r0, [pc, #244]	; (7ac <EVE_init+0x1e0>)
     6b6:	47b8      	blx	r7
		DELAY_MS(110); /* wait more than 55ms - does not work with multitouch, for some reason a minimum delay of 108ms is required */
     6b8:	206e      	movs	r0, #110	; 0x6e
     6ba:	47a8      	blx	r5
		EVE_memWrite16(REG_GPIOX_DIR,0x8000); /* setting GPIO3 back to input */
     6bc:	2180      	movs	r1, #128	; 0x80
     6be:	4846      	ldr	r0, [pc, #280]	; (7d8 <EVE_init+0x20c>)
     6c0:	0209      	lsls	r1, r1, #8
     6c2:	47a0      	blx	r4
	EVE_memWrite8(REG_PWM_DUTY, 0); /* turn off backlight for any other module */
     6c4:	2100      	movs	r1, #0
     6c6:	4845      	ldr	r0, [pc, #276]	; (7dc <EVE_init+0x210>)
     6c8:	47b8      	blx	r7
	EVE_memWrite16(REG_HSIZE,   EVE_HSIZE);   /* active display width */
     6ca:	21c8      	movs	r1, #200	; 0xc8
     6cc:	4844      	ldr	r0, [pc, #272]	; (7e0 <EVE_init+0x214>)
     6ce:	0089      	lsls	r1, r1, #2
     6d0:	47a0      	blx	r4
	EVE_memWrite16(REG_HCYCLE,  EVE_HCYCLE);  /* total number of clocks per line, incl front/back porch */
     6d2:	21e8      	movs	r1, #232	; 0xe8
     6d4:	4843      	ldr	r0, [pc, #268]	; (7e4 <EVE_init+0x218>)
     6d6:	0089      	lsls	r1, r1, #2
     6d8:	47a0      	blx	r4
	EVE_memWrite16(REG_HOFFSET, EVE_HOFFSET); /* start of active line */
     6da:	2158      	movs	r1, #88	; 0x58
     6dc:	4842      	ldr	r0, [pc, #264]	; (7e8 <EVE_init+0x21c>)
     6de:	47a0      	blx	r4
	EVE_memWrite16(REG_HSYNC0,  EVE_HSYNC0);  /* start of horizontal sync pulse */
     6e0:	2100      	movs	r1, #0
     6e2:	4842      	ldr	r0, [pc, #264]	; (7ec <EVE_init+0x220>)
     6e4:	47a0      	blx	r4
	EVE_memWrite16(REG_HSYNC1,  EVE_HSYNC1);  /* end of horizontal sync pulse */
     6e6:	2130      	movs	r1, #48	; 0x30
     6e8:	4841      	ldr	r0, [pc, #260]	; (7f0 <EVE_init+0x224>)
     6ea:	47a0      	blx	r4
	EVE_memWrite16(REG_VSIZE,   EVE_VSIZE);   /* active display height */
     6ec:	21f0      	movs	r1, #240	; 0xf0
     6ee:	4841      	ldr	r0, [pc, #260]	; (7f4 <EVE_init+0x228>)
     6f0:	0049      	lsls	r1, r1, #1
     6f2:	47a0      	blx	r4
	EVE_memWrite16(REG_VCYCLE,  EVE_VCYCLE);  /* total number of lines per screen, including pre/post */
     6f4:	4940      	ldr	r1, [pc, #256]	; (7f8 <EVE_init+0x22c>)
     6f6:	4841      	ldr	r0, [pc, #260]	; (7fc <EVE_init+0x230>)
     6f8:	47a0      	blx	r4
	EVE_memWrite16(REG_VOFFSET, EVE_VOFFSET); /* start of active screen */
     6fa:	2120      	movs	r1, #32
     6fc:	4840      	ldr	r0, [pc, #256]	; (800 <EVE_init+0x234>)
     6fe:	47a0      	blx	r4
	EVE_memWrite16(REG_VSYNC0,  EVE_VSYNC0);  /* start of vertical sync pulse */
     700:	2100      	movs	r1, #0
     702:	4840      	ldr	r0, [pc, #256]	; (804 <EVE_init+0x238>)
     704:	47a0      	blx	r4
	EVE_memWrite16(REG_VSYNC1,  EVE_VSYNC1);  /* end of vertical sync pulse */
     706:	2103      	movs	r1, #3
     708:	483f      	ldr	r0, [pc, #252]	; (808 <EVE_init+0x23c>)
     70a:	47a0      	blx	r4
	EVE_memWrite8(REG_SWIZZLE,  EVE_SWIZZLE); /* FT8xx output to LCD - pin order */
     70c:	2100      	movs	r1, #0
     70e:	483f      	ldr	r0, [pc, #252]	; (80c <EVE_init+0x240>)
     710:	47b8      	blx	r7
	EVE_memWrite8(REG_PCLK_POL, EVE_PCLKPOL); /* LCD data is clocked in on this PCLK edge */
     712:	2101      	movs	r1, #1
     714:	483e      	ldr	r0, [pc, #248]	; (810 <EVE_init+0x244>)
     716:	47b8      	blx	r7
	EVE_memWrite8(REG_CSPREAD,	EVE_CSPREAD); /* helps with noise, when set to 1 fewer signals are changed simultaneously, reset-default: 1 */
     718:	2100      	movs	r1, #0
     71a:	483e      	ldr	r0, [pc, #248]	; (814 <EVE_init+0x248>)
     71c:	47b8      	blx	r7
	EVE_memWrite8(REG_TOUCH_MODE, EVE_TMODE_CONTINUOUS); /* enable touch */
     71e:	2103      	movs	r1, #3
     720:	483d      	ldr	r0, [pc, #244]	; (818 <EVE_init+0x24c>)
     722:	47b8      	blx	r7
	EVE_memWrite16(REG_TOUCH_RZTHRESH, EVE_TOUCH_RZTHRESH);	/* eliminate any false touches */
     724:	2196      	movs	r1, #150	; 0x96
     726:	483d      	ldr	r0, [pc, #244]	; (81c <EVE_init+0x250>)
     728:	00c9      	lsls	r1, r1, #3
     72a:	47a0      	blx	r4
	EVE_memWrite8(REG_VOL_PB, 0x00); /* turn recorded audio volume down */
     72c:	2100      	movs	r1, #0
     72e:	483c      	ldr	r0, [pc, #240]	; (820 <EVE_init+0x254>)
     730:	47b8      	blx	r7
	EVE_memWrite8(REG_VOL_SOUND, 0x00); /* turn synthesizer volume off */
     732:	2100      	movs	r1, #0
     734:	483b      	ldr	r0, [pc, #236]	; (824 <EVE_init+0x258>)
     736:	47b8      	blx	r7
	EVE_memWrite16(REG_SOUND, 0x6000); /* set synthesizer to mute */
     738:	21c0      	movs	r1, #192	; 0xc0
     73a:	483b      	ldr	r0, [pc, #236]	; (828 <EVE_init+0x25c>)
     73c:	01c9      	lsls	r1, r1, #7
     73e:	47a0      	blx	r4
	EVE_memWrite32(EVE_RAM_DL, DL_CLEAR_RGB);
     740:	2180      	movs	r1, #128	; 0x80
     742:	20c0      	movs	r0, #192	; 0xc0
     744:	4c39      	ldr	r4, [pc, #228]	; (82c <EVE_init+0x260>)
     746:	0489      	lsls	r1, r1, #18
     748:	0380      	lsls	r0, r0, #14
     74a:	47a0      	blx	r4
	EVE_memWrite32(EVE_RAM_DL + 4, (DL_CLEAR | CLR_COL | CLR_STN | CLR_TAG));
     74c:	4938      	ldr	r1, [pc, #224]	; (830 <EVE_init+0x264>)
     74e:	4839      	ldr	r0, [pc, #228]	; (834 <EVE_init+0x268>)
     750:	47a0      	blx	r4
	EVE_memWrite32(EVE_RAM_DL + 8, DL_DISPLAY);	/* end of display list */
     752:	2100      	movs	r1, #0
     754:	4838      	ldr	r0, [pc, #224]	; (838 <EVE_init+0x26c>)
     756:	47a0      	blx	r4
	EVE_memWrite32(REG_DLSWAP, EVE_DLSWAP_FRAME);
     758:	2102      	movs	r1, #2
     75a:	4838      	ldr	r0, [pc, #224]	; (83c <EVE_init+0x270>)
     75c:	47a0      	blx	r4
	EVE_memWrite8(REG_GPIO, 0x80); /* enable the DISP signal to the LCD panel, it is set to output in REG_GPIO_DIR by default */
     75e:	2180      	movs	r1, #128	; 0x80
     760:	4837      	ldr	r0, [pc, #220]	; (840 <EVE_init+0x274>)
     762:	47b8      	blx	r7
	EVE_memWrite8(REG_PCLK, EVE_PCLK); /* now start clocking data to the LCD panel */
     764:	2102      	movs	r1, #2
     766:	4837      	ldr	r0, [pc, #220]	; (844 <EVE_init+0x278>)
     768:	47b8      	blx	r7
	EVE_memWrite8(REG_PWM_DUTY, 0x20); /* turn on backlight to 25% for any other module */
     76a:	2120      	movs	r1, #32
     76c:	481b      	ldr	r0, [pc, #108]	; (7dc <EVE_init+0x210>)
     76e:	47b8      	blx	r7
	while(EVE_busy() == 1) /* just to be safe, should not even enter the loop */
     770:	2405      	movs	r4, #5
	if(EVE_dma_busy)
     772:	7833      	ldrb	r3, [r6, #0]
     774:	2b00      	cmp	r3, #0
     776:	d00b      	beq.n	790 <EVE_init+0x1c4>
     778:	3c01      	subs	r4, #1
		DELAY_MS(1);
     77a:	2001      	movs	r0, #1
     77c:	b2a4      	uxth	r4, r4
     77e:	47a8      	blx	r5
		if(timeout > 4)
     780:	2c00      	cmp	r4, #0
     782:	d1f6      	bne.n	772 <EVE_init+0x1a6>
	EVE_init_dma(); /* prepare DMA */
     784:	4b30      	ldr	r3, [pc, #192]	; (848 <EVE_init+0x27c>)
     786:	4798      	blx	r3
	return 1;
     788:	2001      	movs	r0, #1
}
     78a:	bc04      	pop	{r2}
     78c:	4690      	mov	r8, r2
     78e:	bdf0      	pop	{r4, r5, r6, r7, pc}
     790:	47c0      	blx	r8
	while(EVE_busy() == 1) /* just to be safe, should not even enter the loop */
     792:	2801      	cmp	r0, #1
     794:	d0f0      	beq.n	778 <EVE_init+0x1ac>
     796:	e7f5      	b.n	784 <EVE_init+0x1b8>
			return 0;
     798:	2000      	movs	r0, #0
     79a:	e7f6      	b.n	78a <EVE_init+0x1be>
     79c:	00001119 	.word	0x00001119
     7a0:	0000019d 	.word	0x0000019d
     7a4:	00302000 	.word	0x00302000
     7a8:	000001e1 	.word	0x000001e1
     7ac:	00302020 	.word	0x00302020
     7b0:	42000400 	.word	0x42000400
     7b4:	000004d5 	.word	0x000004d5
     7b8:	00001b94 	.word	0x00001b94
     7bc:	0000044d 	.word	0x0000044d
     7c0:	20000470 	.word	0x20000470
     7c4:	000002d9 	.word	0x000002d9
     7c8:	00302114 	.word	0x00302114
     7cc:	0000033d 	.word	0x0000033d
     7d0:	00302168 	.word	0x00302168
     7d4:	00008008 	.word	0x00008008
     7d8:	00302098 	.word	0x00302098
     7dc:	003020d4 	.word	0x003020d4
     7e0:	00302034 	.word	0x00302034
     7e4:	0030202c 	.word	0x0030202c
     7e8:	00302030 	.word	0x00302030
     7ec:	00302038 	.word	0x00302038
     7f0:	0030203c 	.word	0x0030203c
     7f4:	00302048 	.word	0x00302048
     7f8:	0000020d 	.word	0x0000020d
     7fc:	00302040 	.word	0x00302040
     800:	00302044 	.word	0x00302044
     804:	0030204c 	.word	0x0030204c
     808:	00302050 	.word	0x00302050
     80c:	00302064 	.word	0x00302064
     810:	0030206c 	.word	0x0030206c
     814:	00302068 	.word	0x00302068
     818:	00302104 	.word	0x00302104
     81c:	00302118 	.word	0x00302118
     820:	00302080 	.word	0x00302080
     824:	00302084 	.word	0x00302084
     828:	00302088 	.word	0x00302088
     82c:	000003b1 	.word	0x000003b1
     830:	26000007 	.word	0x26000007
     834:	00300004 	.word	0x00300004
     838:	00300008 	.word	0x00300008
     83c:	00302054 	.word	0x00302054
     840:	00302094 	.word	0x00302094
     844:	00302070 	.word	0x00302070
     848:	00001135 	.word	0x00001135

0000084c <EVE_start_cmd_burst>:
{
     84c:	b570      	push	{r4, r5, r6, lr}
	if(EVE_dma_busy)
     84e:	4c0a      	ldr	r4, [pc, #40]	; (878 <EVE_start_cmd_burst+0x2c>)
     850:	7823      	ldrb	r3, [r4, #0]
     852:	2b00      	cmp	r3, #0
     854:	d006      	beq.n	864 <EVE_start_cmd_burst+0x18>
     856:	4d09      	ldr	r5, [pc, #36]	; (87c <EVE_start_cmd_burst+0x30>)
	if(EVE_dma_busy)
     858:	7823      	ldrb	r3, [r4, #0]
     85a:	2b00      	cmp	r3, #0
     85c:	d1fc      	bne.n	858 <EVE_start_cmd_burst+0xc>
     85e:	47a8      	blx	r5
		while (EVE_busy()); /* this is a safe-guard to protect segmented display-list building with DMA from overlapping */
     860:	2800      	cmp	r0, #0
     862:	d1f9      	bne.n	858 <EVE_start_cmd_burst+0xc>
	cmd_burst = 42;
     864:	222a      	movs	r2, #42	; 0x2a
     866:	4b06      	ldr	r3, [pc, #24]	; (880 <EVE_start_cmd_burst+0x34>)
     868:	701a      	strb	r2, [r3, #0]
		EVE_dma_buffer[0] = EVE_dma_buffer[0] << 8;
     86a:	4b06      	ldr	r3, [pc, #24]	; (884 <EVE_start_cmd_burst+0x38>)
     86c:	4a06      	ldr	r2, [pc, #24]	; (888 <EVE_start_cmd_burst+0x3c>)
     86e:	601a      	str	r2, [r3, #0]
		EVE_dma_buffer_index = 1;
     870:	2201      	movs	r2, #1
     872:	4b06      	ldr	r3, [pc, #24]	; (88c <EVE_start_cmd_burst+0x40>)
     874:	801a      	strh	r2, [r3, #0]
}
     876:	bd70      	pop	{r4, r5, r6, pc}
     878:	20000470 	.word	0x20000470
     87c:	0000044d 	.word	0x0000044d
     880:	2000044c 	.word	0x2000044c
     884:	20000480 	.word	0x20000480
     888:	7825b000 	.word	0x7825b000
     88c:	2000047c 	.word	0x2000047c

00000890 <EVE_end_cmd_burst>:
	cmd_burst = 0;
     890:	2200      	movs	r2, #0
{
     892:	b510      	push	{r4, lr}
	cmd_burst = 0;
     894:	4b02      	ldr	r3, [pc, #8]	; (8a0 <EVE_end_cmd_burst+0x10>)
     896:	701a      	strb	r2, [r3, #0]
		EVE_start_dma_transfer(); /* begin DMA transfer */
     898:	4b02      	ldr	r3, [pc, #8]	; (8a4 <EVE_end_cmd_burst+0x14>)
     89a:	4798      	blx	r3
}
     89c:	bd10      	pop	{r4, pc}
     89e:	46c0      	nop			; (mov r8, r8)
     8a0:	2000044c 	.word	0x2000044c
     8a4:	000011a5 	.word	0x000011a5

000008a8 <EVE_start_command>:
			PORT->Group[EVE_CS_PORT].OUTCLR.reg = EVE_CS;
     8a8:	2382      	movs	r3, #130	; 0x82
     8aa:	2220      	movs	r2, #32
     8ac:	05db      	lsls	r3, r3, #23
     8ae:	615a      	str	r2, [r3, #20]
			EVE_SPI->SPI.DATA.reg = data;
     8b0:	23b0      	movs	r3, #176	; 0xb0
			while((EVE_SPI->SPI.INTFLAG.reg & SERCOM_SPI_INTFLAG_TXC) == 0);
     8b2:	2102      	movs	r1, #2
			EVE_SPI->SPI.DATA.reg = data;
     8b4:	4a1c      	ldr	r2, [pc, #112]	; (928 <EVE_start_command+0x80>)
     8b6:	6293      	str	r3, [r2, #40]	; 0x28
			while((EVE_SPI->SPI.INTFLAG.reg & SERCOM_SPI_INTFLAG_TXC) == 0);
     8b8:	7e13      	ldrb	r3, [r2, #24]
     8ba:	4219      	tst	r1, r3
     8bc:	d0fc      	beq.n	8b8 <EVE_start_command+0x10>
			(void) EVE_SPI->SPI.DATA.reg; /* dummy read-access to clear SERCOM_SPI_INTFLAG_RXC */
     8be:	6a93      	ldr	r3, [r2, #40]	; 0x28
			EVE_SPI->SPI.DATA.reg = data;
     8c0:	2325      	movs	r3, #37	; 0x25
			while((EVE_SPI->SPI.INTFLAG.reg & SERCOM_SPI_INTFLAG_TXC) == 0);
     8c2:	2102      	movs	r1, #2
			EVE_SPI->SPI.DATA.reg = data;
     8c4:	6293      	str	r3, [r2, #40]	; 0x28
			while((EVE_SPI->SPI.INTFLAG.reg & SERCOM_SPI_INTFLAG_TXC) == 0);
     8c6:	4a18      	ldr	r2, [pc, #96]	; (928 <EVE_start_command+0x80>)
     8c8:	7e13      	ldrb	r3, [r2, #24]
     8ca:	4219      	tst	r1, r3
     8cc:	d0fc      	beq.n	8c8 <EVE_start_command+0x20>
			(void) EVE_SPI->SPI.DATA.reg; /* dummy read-access to clear SERCOM_SPI_INTFLAG_RXC */
     8ce:	6a93      	ldr	r3, [r2, #40]	; 0x28
			EVE_SPI->SPI.DATA.reg = data;
     8d0:	2378      	movs	r3, #120	; 0x78
			while((EVE_SPI->SPI.INTFLAG.reg & SERCOM_SPI_INTFLAG_TXC) == 0);
     8d2:	2102      	movs	r1, #2
			EVE_SPI->SPI.DATA.reg = data;
     8d4:	6293      	str	r3, [r2, #40]	; 0x28
			while((EVE_SPI->SPI.INTFLAG.reg & SERCOM_SPI_INTFLAG_TXC) == 0);
     8d6:	4a14      	ldr	r2, [pc, #80]	; (928 <EVE_start_command+0x80>)
     8d8:	7e13      	ldrb	r3, [r2, #24]
     8da:	4219      	tst	r1, r3
     8dc:	d0fc      	beq.n	8d8 <EVE_start_command+0x30>
			(void) EVE_SPI->SPI.DATA.reg; /* dummy read-access to clear SERCOM_SPI_INTFLAG_RXC */
     8de:	6a93      	ldr	r3, [r2, #40]	; 0x28
     8e0:	23ff      	movs	r3, #255	; 0xff
			while((EVE_SPI->SPI.INTFLAG.reg & SERCOM_SPI_INTFLAG_TXC) == 0);
     8e2:	2102      	movs	r1, #2
     8e4:	4003      	ands	r3, r0
			EVE_SPI->SPI.DATA.reg = data;
     8e6:	6293      	str	r3, [r2, #40]	; 0x28
			while((EVE_SPI->SPI.INTFLAG.reg & SERCOM_SPI_INTFLAG_TXC) == 0);
     8e8:	4a0f      	ldr	r2, [pc, #60]	; (928 <EVE_start_command+0x80>)
     8ea:	7e13      	ldrb	r3, [r2, #24]
     8ec:	4219      	tst	r1, r3
     8ee:	d0fc      	beq.n	8ea <EVE_start_command+0x42>
     8f0:	2102      	movs	r1, #2
			(void) EVE_SPI->SPI.DATA.reg; /* dummy read-access to clear SERCOM_SPI_INTFLAG_RXC */
     8f2:	6a93      	ldr	r3, [r2, #40]	; 0x28
     8f4:	0403      	lsls	r3, r0, #16
     8f6:	0e1b      	lsrs	r3, r3, #24
			EVE_SPI->SPI.DATA.reg = data;
     8f8:	6293      	str	r3, [r2, #40]	; 0x28
			while((EVE_SPI->SPI.INTFLAG.reg & SERCOM_SPI_INTFLAG_TXC) == 0);
     8fa:	4a0b      	ldr	r2, [pc, #44]	; (928 <EVE_start_command+0x80>)
     8fc:	7e13      	ldrb	r3, [r2, #24]
     8fe:	4219      	tst	r1, r3
     900:	d0fc      	beq.n	8fc <EVE_start_command+0x54>
     902:	2102      	movs	r1, #2
			(void) EVE_SPI->SPI.DATA.reg; /* dummy read-access to clear SERCOM_SPI_INTFLAG_RXC */
     904:	6a93      	ldr	r3, [r2, #40]	; 0x28
     906:	0203      	lsls	r3, r0, #8
     908:	0e1b      	lsrs	r3, r3, #24
			EVE_SPI->SPI.DATA.reg = data;
     90a:	6293      	str	r3, [r2, #40]	; 0x28
			while((EVE_SPI->SPI.INTFLAG.reg & SERCOM_SPI_INTFLAG_TXC) == 0);
     90c:	4a06      	ldr	r2, [pc, #24]	; (928 <EVE_start_command+0x80>)
     90e:	7e13      	ldrb	r3, [r2, #24]
     910:	4219      	tst	r1, r3
     912:	d0fc      	beq.n	90e <EVE_start_command+0x66>
     914:	2102      	movs	r1, #2
	spi_transmit((uint8_t)(command >> 24)); /* send data high byte */
     916:	0e00      	lsrs	r0, r0, #24
			(void) EVE_SPI->SPI.DATA.reg; /* dummy read-access to clear SERCOM_SPI_INTFLAG_RXC */
     918:	6a93      	ldr	r3, [r2, #40]	; 0x28
			EVE_SPI->SPI.DATA.reg = data;
     91a:	6290      	str	r0, [r2, #40]	; 0x28
			while((EVE_SPI->SPI.INTFLAG.reg & SERCOM_SPI_INTFLAG_TXC) == 0);
     91c:	4a02      	ldr	r2, [pc, #8]	; (928 <EVE_start_command+0x80>)
     91e:	7e13      	ldrb	r3, [r2, #24]
     920:	4219      	tst	r1, r3
     922:	d0fc      	beq.n	91e <EVE_start_command+0x76>
			(void) EVE_SPI->SPI.DATA.reg; /* dummy read-access to clear SERCOM_SPI_INTFLAG_RXC */
     924:	6a93      	ldr	r3, [r2, #40]	; 0x28
}
     926:	4770      	bx	lr
     928:	42000400 	.word	0x42000400

0000092c <EVE_cmd_memcpy>:
{
     92c:	b570      	push	{r4, r5, r6, lr}
     92e:	0006      	movs	r6, r0
	EVE_begin_cmd(CMD_MEMCPY);
     930:	20e3      	movs	r0, #227	; 0xe3
     932:	4b3d      	ldr	r3, [pc, #244]	; (a28 <EVE_cmd_memcpy+0xfc>)
     934:	4240      	negs	r0, r0
{
     936:	000d      	movs	r5, r1
     938:	0014      	movs	r4, r2
	EVE_begin_cmd(CMD_MEMCPY);
     93a:	4798      	blx	r3
     93c:	23ff      	movs	r3, #255	; 0xff
			while((EVE_SPI->SPI.INTFLAG.reg & SERCOM_SPI_INTFLAG_TXC) == 0);
     93e:	2102      	movs	r1, #2
			EVE_SPI->SPI.DATA.reg = data;
     940:	4a3a      	ldr	r2, [pc, #232]	; (a2c <EVE_cmd_memcpy+0x100>)
     942:	4033      	ands	r3, r6
     944:	6293      	str	r3, [r2, #40]	; 0x28
			while((EVE_SPI->SPI.INTFLAG.reg & SERCOM_SPI_INTFLAG_TXC) == 0);
     946:	7e13      	ldrb	r3, [r2, #24]
     948:	4219      	tst	r1, r3
     94a:	d0fc      	beq.n	946 <EVE_cmd_memcpy+0x1a>
     94c:	2102      	movs	r1, #2
			(void) EVE_SPI->SPI.DATA.reg; /* dummy read-access to clear SERCOM_SPI_INTFLAG_RXC */
     94e:	6a93      	ldr	r3, [r2, #40]	; 0x28
     950:	0433      	lsls	r3, r6, #16
     952:	0e1b      	lsrs	r3, r3, #24
			EVE_SPI->SPI.DATA.reg = data;
     954:	6293      	str	r3, [r2, #40]	; 0x28
			while((EVE_SPI->SPI.INTFLAG.reg & SERCOM_SPI_INTFLAG_TXC) == 0);
     956:	4a35      	ldr	r2, [pc, #212]	; (a2c <EVE_cmd_memcpy+0x100>)
     958:	7e13      	ldrb	r3, [r2, #24]
     95a:	4219      	tst	r1, r3
     95c:	d0fc      	beq.n	958 <EVE_cmd_memcpy+0x2c>
     95e:	2102      	movs	r1, #2
			(void) EVE_SPI->SPI.DATA.reg; /* dummy read-access to clear SERCOM_SPI_INTFLAG_RXC */
     960:	6a93      	ldr	r3, [r2, #40]	; 0x28
     962:	0233      	lsls	r3, r6, #8
     964:	0e1b      	lsrs	r3, r3, #24
			EVE_SPI->SPI.DATA.reg = data;
     966:	6293      	str	r3, [r2, #40]	; 0x28
			while((EVE_SPI->SPI.INTFLAG.reg & SERCOM_SPI_INTFLAG_TXC) == 0);
     968:	4a30      	ldr	r2, [pc, #192]	; (a2c <EVE_cmd_memcpy+0x100>)
     96a:	7e13      	ldrb	r3, [r2, #24]
     96c:	4219      	tst	r1, r3
     96e:	d0fc      	beq.n	96a <EVE_cmd_memcpy+0x3e>
     970:	2102      	movs	r1, #2
	spi_transmit((uint8_t)(dest >> 24));
     972:	0e36      	lsrs	r6, r6, #24
			(void) EVE_SPI->SPI.DATA.reg; /* dummy read-access to clear SERCOM_SPI_INTFLAG_RXC */
     974:	6a93      	ldr	r3, [r2, #40]	; 0x28
			EVE_SPI->SPI.DATA.reg = data;
     976:	6296      	str	r6, [r2, #40]	; 0x28
			while((EVE_SPI->SPI.INTFLAG.reg & SERCOM_SPI_INTFLAG_TXC) == 0);
     978:	4a2c      	ldr	r2, [pc, #176]	; (a2c <EVE_cmd_memcpy+0x100>)
     97a:	7e13      	ldrb	r3, [r2, #24]
     97c:	4219      	tst	r1, r3
     97e:	d0fc      	beq.n	97a <EVE_cmd_memcpy+0x4e>
			(void) EVE_SPI->SPI.DATA.reg; /* dummy read-access to clear SERCOM_SPI_INTFLAG_RXC */
     980:	6a93      	ldr	r3, [r2, #40]	; 0x28
     982:	23ff      	movs	r3, #255	; 0xff
			while((EVE_SPI->SPI.INTFLAG.reg & SERCOM_SPI_INTFLAG_TXC) == 0);
     984:	2102      	movs	r1, #2
     986:	402b      	ands	r3, r5
			EVE_SPI->SPI.DATA.reg = data;
     988:	6293      	str	r3, [r2, #40]	; 0x28
			while((EVE_SPI->SPI.INTFLAG.reg & SERCOM_SPI_INTFLAG_TXC) == 0);
     98a:	4a28      	ldr	r2, [pc, #160]	; (a2c <EVE_cmd_memcpy+0x100>)
     98c:	7e13      	ldrb	r3, [r2, #24]
     98e:	4219      	tst	r1, r3
     990:	d0fc      	beq.n	98c <EVE_cmd_memcpy+0x60>
     992:	2102      	movs	r1, #2
			(void) EVE_SPI->SPI.DATA.reg; /* dummy read-access to clear SERCOM_SPI_INTFLAG_RXC */
     994:	6a93      	ldr	r3, [r2, #40]	; 0x28
     996:	042b      	lsls	r3, r5, #16
     998:	0e1b      	lsrs	r3, r3, #24
			EVE_SPI->SPI.DATA.reg = data;
     99a:	6293      	str	r3, [r2, #40]	; 0x28
			while((EVE_SPI->SPI.INTFLAG.reg & SERCOM_SPI_INTFLAG_TXC) == 0);
     99c:	4a23      	ldr	r2, [pc, #140]	; (a2c <EVE_cmd_memcpy+0x100>)
     99e:	7e13      	ldrb	r3, [r2, #24]
     9a0:	4219      	tst	r1, r3
     9a2:	d0fc      	beq.n	99e <EVE_cmd_memcpy+0x72>
     9a4:	2102      	movs	r1, #2
			(void) EVE_SPI->SPI.DATA.reg; /* dummy read-access to clear SERCOM_SPI_INTFLAG_RXC */
     9a6:	6a93      	ldr	r3, [r2, #40]	; 0x28
     9a8:	022b      	lsls	r3, r5, #8
     9aa:	0e1b      	lsrs	r3, r3, #24
			EVE_SPI->SPI.DATA.reg = data;
     9ac:	6293      	str	r3, [r2, #40]	; 0x28
			while((EVE_SPI->SPI.INTFLAG.reg & SERCOM_SPI_INTFLAG_TXC) == 0);
     9ae:	4a1f      	ldr	r2, [pc, #124]	; (a2c <EVE_cmd_memcpy+0x100>)
     9b0:	7e13      	ldrb	r3, [r2, #24]
     9b2:	4219      	tst	r1, r3
     9b4:	d0fc      	beq.n	9b0 <EVE_cmd_memcpy+0x84>
     9b6:	2102      	movs	r1, #2
	spi_transmit((uint8_t)(src >> 24));
     9b8:	0e2d      	lsrs	r5, r5, #24
			(void) EVE_SPI->SPI.DATA.reg; /* dummy read-access to clear SERCOM_SPI_INTFLAG_RXC */
     9ba:	6a93      	ldr	r3, [r2, #40]	; 0x28
			EVE_SPI->SPI.DATA.reg = data;
     9bc:	6295      	str	r5, [r2, #40]	; 0x28
			while((EVE_SPI->SPI.INTFLAG.reg & SERCOM_SPI_INTFLAG_TXC) == 0);
     9be:	4a1b      	ldr	r2, [pc, #108]	; (a2c <EVE_cmd_memcpy+0x100>)
     9c0:	7e13      	ldrb	r3, [r2, #24]
     9c2:	4219      	tst	r1, r3
     9c4:	d0fc      	beq.n	9c0 <EVE_cmd_memcpy+0x94>
			(void) EVE_SPI->SPI.DATA.reg; /* dummy read-access to clear SERCOM_SPI_INTFLAG_RXC */
     9c6:	6a93      	ldr	r3, [r2, #40]	; 0x28
     9c8:	23ff      	movs	r3, #255	; 0xff
			while((EVE_SPI->SPI.INTFLAG.reg & SERCOM_SPI_INTFLAG_TXC) == 0);
     9ca:	2102      	movs	r1, #2
     9cc:	4023      	ands	r3, r4
			EVE_SPI->SPI.DATA.reg = data;
     9ce:	6293      	str	r3, [r2, #40]	; 0x28
			while((EVE_SPI->SPI.INTFLAG.reg & SERCOM_SPI_INTFLAG_TXC) == 0);
     9d0:	4a16      	ldr	r2, [pc, #88]	; (a2c <EVE_cmd_memcpy+0x100>)
     9d2:	7e13      	ldrb	r3, [r2, #24]
     9d4:	4219      	tst	r1, r3
     9d6:	d0fc      	beq.n	9d2 <EVE_cmd_memcpy+0xa6>
     9d8:	2102      	movs	r1, #2
			(void) EVE_SPI->SPI.DATA.reg; /* dummy read-access to clear SERCOM_SPI_INTFLAG_RXC */
     9da:	6a93      	ldr	r3, [r2, #40]	; 0x28
     9dc:	0423      	lsls	r3, r4, #16
     9de:	0e1b      	lsrs	r3, r3, #24
			EVE_SPI->SPI.DATA.reg = data;
     9e0:	6293      	str	r3, [r2, #40]	; 0x28
			while((EVE_SPI->SPI.INTFLAG.reg & SERCOM_SPI_INTFLAG_TXC) == 0);
     9e2:	4a12      	ldr	r2, [pc, #72]	; (a2c <EVE_cmd_memcpy+0x100>)
     9e4:	7e13      	ldrb	r3, [r2, #24]
     9e6:	4219      	tst	r1, r3
     9e8:	d0fc      	beq.n	9e4 <EVE_cmd_memcpy+0xb8>
     9ea:	2102      	movs	r1, #2
			(void) EVE_SPI->SPI.DATA.reg; /* dummy read-access to clear SERCOM_SPI_INTFLAG_RXC */
     9ec:	6a93      	ldr	r3, [r2, #40]	; 0x28
     9ee:	0223      	lsls	r3, r4, #8
     9f0:	0e1b      	lsrs	r3, r3, #24
			EVE_SPI->SPI.DATA.reg = data;
     9f2:	6293      	str	r3, [r2, #40]	; 0x28
			while((EVE_SPI->SPI.INTFLAG.reg & SERCOM_SPI_INTFLAG_TXC) == 0);
     9f4:	4a0d      	ldr	r2, [pc, #52]	; (a2c <EVE_cmd_memcpy+0x100>)
     9f6:	7e13      	ldrb	r3, [r2, #24]
     9f8:	4219      	tst	r1, r3
     9fa:	d0fc      	beq.n	9f6 <EVE_cmd_memcpy+0xca>
     9fc:	2102      	movs	r1, #2
	spi_transmit((uint8_t)(num >> 24));
     9fe:	0e24      	lsrs	r4, r4, #24
			(void) EVE_SPI->SPI.DATA.reg; /* dummy read-access to clear SERCOM_SPI_INTFLAG_RXC */
     a00:	6a93      	ldr	r3, [r2, #40]	; 0x28
			EVE_SPI->SPI.DATA.reg = data;
     a02:	6294      	str	r4, [r2, #40]	; 0x28
			while((EVE_SPI->SPI.INTFLAG.reg & SERCOM_SPI_INTFLAG_TXC) == 0);
     a04:	4a09      	ldr	r2, [pc, #36]	; (a2c <EVE_cmd_memcpy+0x100>)
     a06:	7e13      	ldrb	r3, [r2, #24]
     a08:	4219      	tst	r1, r3
     a0a:	d0fc      	beq.n	a06 <EVE_cmd_memcpy+0xda>
			(void) EVE_SPI->SPI.DATA.reg; /* dummy read-access to clear SERCOM_SPI_INTFLAG_RXC */
     a0c:	6a93      	ldr	r3, [r2, #40]	; 0x28
			PORT->Group[EVE_CS_PORT].OUTSET.reg = EVE_CS;
     a0e:	2382      	movs	r3, #130	; 0x82
     a10:	2220      	movs	r2, #32
     a12:	05db      	lsls	r3, r3, #23
     a14:	4c06      	ldr	r4, [pc, #24]	; (a30 <EVE_cmd_memcpy+0x104>)
     a16:	4d07      	ldr	r5, [pc, #28]	; (a34 <EVE_cmd_memcpy+0x108>)
     a18:	619a      	str	r2, [r3, #24]
	if(EVE_dma_busy)
     a1a:	7823      	ldrb	r3, [r4, #0]
     a1c:	2b00      	cmp	r3, #0
     a1e:	d1fc      	bne.n	a1a <EVE_cmd_memcpy+0xee>
     a20:	47a8      	blx	r5
	while (EVE_busy());
     a22:	2800      	cmp	r0, #0
     a24:	d1f9      	bne.n	a1a <EVE_cmd_memcpy+0xee>
}
     a26:	bd70      	pop	{r4, r5, r6, pc}
     a28:	000008a9 	.word	0x000008a9
     a2c:	42000400 	.word	0x42000400
     a30:	20000470 	.word	0x20000470
     a34:	0000044d 	.word	0x0000044d

00000a38 <EVE_cmd_loadimage>:
{
     a38:	b5f8      	push	{r3, r4, r5, r6, r7, lr}
     a3a:	0007      	movs	r7, r0
	EVE_begin_cmd(CMD_LOADIMAGE);
     a3c:	20dc      	movs	r0, #220	; 0xdc
{
     a3e:	001e      	movs	r6, r3
	EVE_begin_cmd(CMD_LOADIMAGE);
     a40:	4240      	negs	r0, r0
     a42:	4b2b      	ldr	r3, [pc, #172]	; (af0 <EVE_cmd_loadimage+0xb8>)
{
     a44:	000c      	movs	r4, r1
     a46:	0015      	movs	r5, r2
	EVE_begin_cmd(CMD_LOADIMAGE);
     a48:	4798      	blx	r3
     a4a:	23ff      	movs	r3, #255	; 0xff
			while((EVE_SPI->SPI.INTFLAG.reg & SERCOM_SPI_INTFLAG_TXC) == 0);
     a4c:	2102      	movs	r1, #2
			EVE_SPI->SPI.DATA.reg = data;
     a4e:	4a29      	ldr	r2, [pc, #164]	; (af4 <EVE_cmd_loadimage+0xbc>)
     a50:	403b      	ands	r3, r7
     a52:	6293      	str	r3, [r2, #40]	; 0x28
			while((EVE_SPI->SPI.INTFLAG.reg & SERCOM_SPI_INTFLAG_TXC) == 0);
     a54:	7e13      	ldrb	r3, [r2, #24]
     a56:	4219      	tst	r1, r3
     a58:	d0fc      	beq.n	a54 <EVE_cmd_loadimage+0x1c>
     a5a:	2102      	movs	r1, #2
			(void) EVE_SPI->SPI.DATA.reg; /* dummy read-access to clear SERCOM_SPI_INTFLAG_RXC */
     a5c:	6a93      	ldr	r3, [r2, #40]	; 0x28
     a5e:	043b      	lsls	r3, r7, #16
     a60:	0e1b      	lsrs	r3, r3, #24
			EVE_SPI->SPI.DATA.reg = data;
     a62:	6293      	str	r3, [r2, #40]	; 0x28
			while((EVE_SPI->SPI.INTFLAG.reg & SERCOM_SPI_INTFLAG_TXC) == 0);
     a64:	4a23      	ldr	r2, [pc, #140]	; (af4 <EVE_cmd_loadimage+0xbc>)
     a66:	7e13      	ldrb	r3, [r2, #24]
     a68:	4219      	tst	r1, r3
     a6a:	d0fc      	beq.n	a66 <EVE_cmd_loadimage+0x2e>
     a6c:	2102      	movs	r1, #2
			(void) EVE_SPI->SPI.DATA.reg; /* dummy read-access to clear SERCOM_SPI_INTFLAG_RXC */
     a6e:	6a93      	ldr	r3, [r2, #40]	; 0x28
     a70:	023b      	lsls	r3, r7, #8
     a72:	0e1b      	lsrs	r3, r3, #24
			EVE_SPI->SPI.DATA.reg = data;
     a74:	6293      	str	r3, [r2, #40]	; 0x28
			while((EVE_SPI->SPI.INTFLAG.reg & SERCOM_SPI_INTFLAG_TXC) == 0);
     a76:	4a1f      	ldr	r2, [pc, #124]	; (af4 <EVE_cmd_loadimage+0xbc>)
     a78:	7e13      	ldrb	r3, [r2, #24]
     a7a:	4219      	tst	r1, r3
     a7c:	d0fc      	beq.n	a78 <EVE_cmd_loadimage+0x40>
     a7e:	2102      	movs	r1, #2
	spi_transmit((uint8_t)(ptr >> 24));
     a80:	0e3f      	lsrs	r7, r7, #24
			(void) EVE_SPI->SPI.DATA.reg; /* dummy read-access to clear SERCOM_SPI_INTFLAG_RXC */
     a82:	6a93      	ldr	r3, [r2, #40]	; 0x28
			EVE_SPI->SPI.DATA.reg = data;
     a84:	6297      	str	r7, [r2, #40]	; 0x28
			while((EVE_SPI->SPI.INTFLAG.reg & SERCOM_SPI_INTFLAG_TXC) == 0);
     a86:	4a1b      	ldr	r2, [pc, #108]	; (af4 <EVE_cmd_loadimage+0xbc>)
     a88:	7e13      	ldrb	r3, [r2, #24]
     a8a:	4219      	tst	r1, r3
     a8c:	d0fc      	beq.n	a88 <EVE_cmd_loadimage+0x50>
			(void) EVE_SPI->SPI.DATA.reg; /* dummy read-access to clear SERCOM_SPI_INTFLAG_RXC */
     a8e:	6a93      	ldr	r3, [r2, #40]	; 0x28
     a90:	23ff      	movs	r3, #255	; 0xff
			while((EVE_SPI->SPI.INTFLAG.reg & SERCOM_SPI_INTFLAG_TXC) == 0);
     a92:	2102      	movs	r1, #2
     a94:	4023      	ands	r3, r4
			EVE_SPI->SPI.DATA.reg = data;
     a96:	6293      	str	r3, [r2, #40]	; 0x28
			while((EVE_SPI->SPI.INTFLAG.reg & SERCOM_SPI_INTFLAG_TXC) == 0);
     a98:	4a16      	ldr	r2, [pc, #88]	; (af4 <EVE_cmd_loadimage+0xbc>)
     a9a:	7e13      	ldrb	r3, [r2, #24]
     a9c:	4219      	tst	r1, r3
     a9e:	d0fc      	beq.n	a9a <EVE_cmd_loadimage+0x62>
     aa0:	2102      	movs	r1, #2
			(void) EVE_SPI->SPI.DATA.reg; /* dummy read-access to clear SERCOM_SPI_INTFLAG_RXC */
     aa2:	6a93      	ldr	r3, [r2, #40]	; 0x28
     aa4:	0423      	lsls	r3, r4, #16
     aa6:	0e1b      	lsrs	r3, r3, #24
			EVE_SPI->SPI.DATA.reg = data;
     aa8:	6293      	str	r3, [r2, #40]	; 0x28
			while((EVE_SPI->SPI.INTFLAG.reg & SERCOM_SPI_INTFLAG_TXC) == 0);
     aaa:	4a12      	ldr	r2, [pc, #72]	; (af4 <EVE_cmd_loadimage+0xbc>)
     aac:	7e13      	ldrb	r3, [r2, #24]
     aae:	4219      	tst	r1, r3
     ab0:	d0fc      	beq.n	aac <EVE_cmd_loadimage+0x74>
     ab2:	2102      	movs	r1, #2
			(void) EVE_SPI->SPI.DATA.reg; /* dummy read-access to clear SERCOM_SPI_INTFLAG_RXC */
     ab4:	6a93      	ldr	r3, [r2, #40]	; 0x28
     ab6:	0223      	lsls	r3, r4, #8
     ab8:	0e1b      	lsrs	r3, r3, #24
			EVE_SPI->SPI.DATA.reg = data;
     aba:	6293      	str	r3, [r2, #40]	; 0x28
			while((EVE_SPI->SPI.INTFLAG.reg & SERCOM_SPI_INTFLAG_TXC) == 0);
     abc:	4a0d      	ldr	r2, [pc, #52]	; (af4 <EVE_cmd_loadimage+0xbc>)
     abe:	7e13      	ldrb	r3, [r2, #24]
     ac0:	4219      	tst	r1, r3
     ac2:	d0fc      	beq.n	abe <EVE_cmd_loadimage+0x86>
     ac4:	2102      	movs	r1, #2
			(void) EVE_SPI->SPI.DATA.reg; /* dummy read-access to clear SERCOM_SPI_INTFLAG_RXC */
     ac6:	6a93      	ldr	r3, [r2, #40]	; 0x28
	spi_transmit((uint8_t)(options >> 24));
     ac8:	0e23      	lsrs	r3, r4, #24
			EVE_SPI->SPI.DATA.reg = data;
     aca:	6293      	str	r3, [r2, #40]	; 0x28
			while((EVE_SPI->SPI.INTFLAG.reg & SERCOM_SPI_INTFLAG_TXC) == 0);
     acc:	4a09      	ldr	r2, [pc, #36]	; (af4 <EVE_cmd_loadimage+0xbc>)
     ace:	7e13      	ldrb	r3, [r2, #24]
     ad0:	4219      	tst	r1, r3
     ad2:	d0fc      	beq.n	ace <EVE_cmd_loadimage+0x96>
			(void) EVE_SPI->SPI.DATA.reg; /* dummy read-access to clear SERCOM_SPI_INTFLAG_RXC */
     ad4:	6a93      	ldr	r3, [r2, #40]	; 0x28
			PORT->Group[EVE_CS_PORT].OUTSET.reg = EVE_CS;
     ad6:	2382      	movs	r3, #130	; 0x82
     ad8:	2220      	movs	r2, #32
     ada:	05db      	lsls	r3, r3, #23
     adc:	619a      	str	r2, [r3, #24]
	if((options & EVE_OPT_MEDIAFIFO) == 0) /* direct data, not by Media-FIFO */
     ade:	06e3      	lsls	r3, r4, #27
     ae0:	d405      	bmi.n	aee <EVE_cmd_loadimage+0xb6>
		if(data)
     ae2:	2d00      	cmp	r5, #0
     ae4:	d003      	beq.n	aee <EVE_cmd_loadimage+0xb6>
			block_transfer(data, len);
     ae6:	0031      	movs	r1, r6
     ae8:	0028      	movs	r0, r5
     aea:	4b03      	ldr	r3, [pc, #12]	; (af8 <EVE_cmd_loadimage+0xc0>)
     aec:	4798      	blx	r3
}
     aee:	bdf8      	pop	{r3, r4, r5, r6, r7, pc}
     af0:	000008a9 	.word	0x000008a9
     af4:	42000400 	.word	0x42000400
     af8:	00000529 	.word	0x00000529

00000afc <EVE_cmd_inflate>:
{
     afc:	b570      	push	{r4, r5, r6, lr}
     afe:	0006      	movs	r6, r0
	EVE_begin_cmd(CMD_INFLATE);
     b00:	20de      	movs	r0, #222	; 0xde
     b02:	4b19      	ldr	r3, [pc, #100]	; (b68 <EVE_cmd_inflate+0x6c>)
     b04:	4240      	negs	r0, r0
{
     b06:	000c      	movs	r4, r1
     b08:	0015      	movs	r5, r2
	EVE_begin_cmd(CMD_INFLATE);
     b0a:	4798      	blx	r3
     b0c:	23ff      	movs	r3, #255	; 0xff
			while((EVE_SPI->SPI.INTFLAG.reg & SERCOM_SPI_INTFLAG_TXC) == 0);
     b0e:	2102      	movs	r1, #2
			EVE_SPI->SPI.DATA.reg = data;
     b10:	4a16      	ldr	r2, [pc, #88]	; (b6c <EVE_cmd_inflate+0x70>)
     b12:	4033      	ands	r3, r6
     b14:	6293      	str	r3, [r2, #40]	; 0x28
			while((EVE_SPI->SPI.INTFLAG.reg & SERCOM_SPI_INTFLAG_TXC) == 0);
     b16:	7e13      	ldrb	r3, [r2, #24]
     b18:	4219      	tst	r1, r3
     b1a:	d0fc      	beq.n	b16 <EVE_cmd_inflate+0x1a>
     b1c:	2102      	movs	r1, #2
			(void) EVE_SPI->SPI.DATA.reg; /* dummy read-access to clear SERCOM_SPI_INTFLAG_RXC */
     b1e:	6a93      	ldr	r3, [r2, #40]	; 0x28
     b20:	0433      	lsls	r3, r6, #16
     b22:	0e1b      	lsrs	r3, r3, #24
			EVE_SPI->SPI.DATA.reg = data;
     b24:	6293      	str	r3, [r2, #40]	; 0x28
			while((EVE_SPI->SPI.INTFLAG.reg & SERCOM_SPI_INTFLAG_TXC) == 0);
     b26:	4a11      	ldr	r2, [pc, #68]	; (b6c <EVE_cmd_inflate+0x70>)
     b28:	7e13      	ldrb	r3, [r2, #24]
     b2a:	4219      	tst	r1, r3
     b2c:	d0fc      	beq.n	b28 <EVE_cmd_inflate+0x2c>
     b2e:	2102      	movs	r1, #2
			(void) EVE_SPI->SPI.DATA.reg; /* dummy read-access to clear SERCOM_SPI_INTFLAG_RXC */
     b30:	6a93      	ldr	r3, [r2, #40]	; 0x28
     b32:	0233      	lsls	r3, r6, #8
     b34:	0e1b      	lsrs	r3, r3, #24
			EVE_SPI->SPI.DATA.reg = data;
     b36:	6293      	str	r3, [r2, #40]	; 0x28
			while((EVE_SPI->SPI.INTFLAG.reg & SERCOM_SPI_INTFLAG_TXC) == 0);
     b38:	4a0c      	ldr	r2, [pc, #48]	; (b6c <EVE_cmd_inflate+0x70>)
     b3a:	7e13      	ldrb	r3, [r2, #24]
     b3c:	4219      	tst	r1, r3
     b3e:	d0fc      	beq.n	b3a <EVE_cmd_inflate+0x3e>
     b40:	2102      	movs	r1, #2
	spi_transmit((uint8_t)(ptr >> 24));
     b42:	0e36      	lsrs	r6, r6, #24
			(void) EVE_SPI->SPI.DATA.reg; /* dummy read-access to clear SERCOM_SPI_INTFLAG_RXC */
     b44:	6a93      	ldr	r3, [r2, #40]	; 0x28
			EVE_SPI->SPI.DATA.reg = data;
     b46:	6296      	str	r6, [r2, #40]	; 0x28
			while((EVE_SPI->SPI.INTFLAG.reg & SERCOM_SPI_INTFLAG_TXC) == 0);
     b48:	4a08      	ldr	r2, [pc, #32]	; (b6c <EVE_cmd_inflate+0x70>)
     b4a:	7e13      	ldrb	r3, [r2, #24]
     b4c:	4219      	tst	r1, r3
     b4e:	d0fc      	beq.n	b4a <EVE_cmd_inflate+0x4e>
			(void) EVE_SPI->SPI.DATA.reg; /* dummy read-access to clear SERCOM_SPI_INTFLAG_RXC */
     b50:	6a93      	ldr	r3, [r2, #40]	; 0x28
			PORT->Group[EVE_CS_PORT].OUTSET.reg = EVE_CS;
     b52:	2382      	movs	r3, #130	; 0x82
     b54:	2220      	movs	r2, #32
     b56:	05db      	lsls	r3, r3, #23
     b58:	619a      	str	r2, [r3, #24]
	if(data)
     b5a:	2c00      	cmp	r4, #0
     b5c:	d003      	beq.n	b66 <EVE_cmd_inflate+0x6a>
		block_transfer(data, len);
     b5e:	0029      	movs	r1, r5
     b60:	0020      	movs	r0, r4
     b62:	4b03      	ldr	r3, [pc, #12]	; (b70 <EVE_cmd_inflate+0x74>)
     b64:	4798      	blx	r3
}
     b66:	bd70      	pop	{r4, r5, r6, pc}
     b68:	000008a9 	.word	0x000008a9
     b6c:	42000400 	.word	0x42000400
     b70:	00000529 	.word	0x00000529

00000b74 <EVE_write_string>:
{
     b74:	b5f0      	push	{r4, r5, r6, r7, lr}
	if(cmd_burst)
     b76:	4b2d      	ldr	r3, [pc, #180]	; (c2c <EVE_write_string+0xb8>)
     b78:	781b      	ldrb	r3, [r3, #0]
     b7a:	2b00      	cmp	r3, #0
     b7c:	d110      	bne.n	ba0 <EVE_write_string+0x2c>
     b7e:	2400      	movs	r4, #0
			while((EVE_SPI->SPI.INTFLAG.reg & SERCOM_SPI_INTFLAG_TXC) == 0);
     b80:	2102      	movs	r1, #2
			EVE_SPI->SPI.DATA.reg = data;
     b82:	4a2b      	ldr	r2, [pc, #172]	; (c30 <EVE_write_string+0xbc>)
		while(bytes[textindex] != 0)
     b84:	5d03      	ldrb	r3, [r0, r4]
     b86:	b2e5      	uxtb	r5, r4
     b88:	2b00      	cmp	r3, #0
     b8a:	d034      	beq.n	bf6 <EVE_write_string+0x82>
     b8c:	6293      	str	r3, [r2, #40]	; 0x28
			while((EVE_SPI->SPI.INTFLAG.reg & SERCOM_SPI_INTFLAG_TXC) == 0);
     b8e:	7e13      	ldrb	r3, [r2, #24]
     b90:	4219      	tst	r1, r3
     b92:	d0fc      	beq.n	b8e <EVE_write_string+0x1a>
     b94:	3401      	adds	r4, #1
			(void) EVE_SPI->SPI.DATA.reg; /* dummy read-access to clear SERCOM_SPI_INTFLAG_RXC */
     b96:	6a93      	ldr	r3, [r2, #40]	; 0x28
			if(textindex > 249) /* there appears to be no end for the "string", so leave */
     b98:	2cfa      	cmp	r4, #250	; 0xfa
     b9a:	d1f3      	bne.n	b84 <EVE_write_string+0x10>
     b9c:	2002      	movs	r0, #2
     b9e:	e02f      	b.n	c00 <EVE_write_string+0x8c>
     ba0:	0005      	movs	r5, r0
	if(cmd_burst)
     ba2:	0001      	movs	r1, r0
     ba4:	35fa      	adds	r5, #250	; 0xfa
     ba6:	2300      	movs	r3, #0
     ba8:	4c22      	ldr	r4, [pc, #136]	; (c34 <EVE_write_string+0xc0>)
     baa:	4e23      	ldr	r6, [pc, #140]	; (c38 <EVE_write_string+0xc4>)
     bac:	e010      	b.n	bd0 <EVE_write_string+0x5c>
			padding++;
     bae:	3301      	adds	r3, #1
     bb0:	b2db      	uxtb	r3, r3
			if(padding > 3)
     bb2:	2b03      	cmp	r3, #3
     bb4:	d909      	bls.n	bca <EVE_write_string+0x56>

		/* spi_transmit_burst() is only used for cmd-FIFO commands so it *always* has to transfer 4 bytes */
		static inline void spi_transmit_burst(uint32_t data)
		{
			#if defined (EVE_DMA)
				EVE_dma_buffer[EVE_dma_buffer_index++] = data;
     bb6:	8823      	ldrh	r3, [r4, #0]
				spi_transmit_burst(*longs++);
     bb8:	680f      	ldr	r7, [r1, #0]
     bba:	b29b      	uxth	r3, r3
     bbc:	1c5a      	adds	r2, r3, #1
     bbe:	009b      	lsls	r3, r3, #2
     bc0:	50f7      	str	r7, [r6, r3]
				padding = 0;
     bc2:	2300      	movs	r3, #0
     bc4:	b292      	uxth	r2, r2
     bc6:	8022      	strh	r2, [r4, #0]
				spi_transmit_burst(*longs++);
     bc8:	3104      	adds	r1, #4
     bca:	3001      	adds	r0, #1
			if(textindex > 249) /* there appears to be no end for the "string", so leave */
     bcc:	4285      	cmp	r5, r0
     bce:	d002      	beq.n	bd6 <EVE_write_string+0x62>
		while(bytes[textindex] != 0)
     bd0:	7802      	ldrb	r2, [r0, #0]
     bd2:	2a00      	cmp	r2, #0
     bd4:	d1eb      	bne.n	bae <EVE_write_string+0x3a>
		calc = *longs;
     bd6:	680a      	ldr	r2, [r1, #0]
		switch(padding)
     bd8:	2b02      	cmp	r3, #2
     bda:	d01e      	beq.n	c1a <EVE_write_string+0xa6>
     bdc:	2b03      	cmp	r3, #3
     bde:	d022      	beq.n	c26 <EVE_write_string+0xb2>
			calc = 0x00000000;
     be0:	2100      	movs	r1, #0
		switch(padding)
     be2:	2b01      	cmp	r3, #1
     be4:	d01c      	beq.n	c20 <EVE_write_string+0xac>
     be6:	8823      	ldrh	r3, [r4, #0]
     be8:	b29b      	uxth	r3, r3
     bea:	1c5a      	adds	r2, r3, #1
     bec:	b292      	uxth	r2, r2
     bee:	009b      	lsls	r3, r3, #2
     bf0:	8022      	strh	r2, [r4, #0]
     bf2:	50f1      	str	r1, [r6, r3]
}
     bf4:	bdf0      	pop	{r4, r5, r6, r7, pc}
     bf6:	2003      	movs	r0, #3
     bf8:	4005      	ands	r5, r0
     bfa:	2004      	movs	r0, #4
     bfc:	1b40      	subs	r0, r0, r5
     bfe:	b2c0      	uxtb	r0, r0
			EVE_SPI->SPI.DATA.reg = data;
     c00:	2400      	movs	r4, #0
			while((EVE_SPI->SPI.INTFLAG.reg & SERCOM_SPI_INTFLAG_TXC) == 0);
     c02:	2102      	movs	r1, #2
			EVE_SPI->SPI.DATA.reg = data;
     c04:	4a0a      	ldr	r2, [pc, #40]	; (c30 <EVE_write_string+0xbc>)
     c06:	6294      	str	r4, [r2, #40]	; 0x28
			while((EVE_SPI->SPI.INTFLAG.reg & SERCOM_SPI_INTFLAG_TXC) == 0);
     c08:	7e13      	ldrb	r3, [r2, #24]
     c0a:	4219      	tst	r1, r3
     c0c:	d0fc      	beq.n	c08 <EVE_write_string+0x94>
			padding--;
     c0e:	3801      	subs	r0, #1
     c10:	b2c0      	uxtb	r0, r0
			(void) EVE_SPI->SPI.DATA.reg; /* dummy read-access to clear SERCOM_SPI_INTFLAG_RXC */
     c12:	6a93      	ldr	r3, [r2, #40]	; 0x28
		while(padding > 0)
     c14:	2800      	cmp	r0, #0
     c16:	d1f6      	bne.n	c06 <EVE_write_string+0x92>
     c18:	e7ec      	b.n	bf4 <EVE_write_string+0x80>
			calc &= 0x0000ffff;
     c1a:	0412      	lsls	r2, r2, #16
     c1c:	0c11      	lsrs	r1, r2, #16
     c1e:	e7e2      	b.n	be6 <EVE_write_string+0x72>
			calc &= 0x000000ff;
     c20:	21ff      	movs	r1, #255	; 0xff
     c22:	4011      	ands	r1, r2
     c24:	e7df      	b.n	be6 <EVE_write_string+0x72>
			calc &= 0x00ffffff;
     c26:	0212      	lsls	r2, r2, #8
     c28:	0a11      	lsrs	r1, r2, #8
     c2a:	e7dc      	b.n	be6 <EVE_write_string+0x72>
     c2c:	2000044c 	.word	0x2000044c
     c30:	42000400 	.word	0x42000400
     c34:	2000047c 	.word	0x2000047c
     c38:	20000480 	.word	0x20000480

00000c3c <EVE_cmd_text.part.3>:
void EVE_cmd_text(int16_t x0, int16_t y0, int16_t font, uint16_t options, const char* text)
     c3c:	b5f8      	push	{r3, r4, r5, r6, r7, lr}
     c3e:	0007      	movs	r7, r0
		EVE_start_command(CMD_TEXT);
     c40:	20f4      	movs	r0, #244	; 0xf4
void EVE_cmd_text(int16_t x0, int16_t y0, int16_t font, uint16_t options, const char* text)
     c42:	001c      	movs	r4, r3
		EVE_start_command(CMD_TEXT);
     c44:	4240      	negs	r0, r0
     c46:	4b27      	ldr	r3, [pc, #156]	; (ce4 <EVE_cmd_text.part.3+0xa8>)
void EVE_cmd_text(int16_t x0, int16_t y0, int16_t font, uint16_t options, const char* text)
     c48:	000e      	movs	r6, r1
     c4a:	0015      	movs	r5, r2
		EVE_start_command(CMD_TEXT);
     c4c:	4798      	blx	r3
			while((EVE_SPI->SPI.INTFLAG.reg & SERCOM_SPI_INTFLAG_TXC) == 0);
     c4e:	2102      	movs	r1, #2
			EVE_SPI->SPI.DATA.reg = data;
     c50:	4a25      	ldr	r2, [pc, #148]	; (ce8 <EVE_cmd_text.part.3+0xac>)
     c52:	b2fb      	uxtb	r3, r7
     c54:	6293      	str	r3, [r2, #40]	; 0x28
			while((EVE_SPI->SPI.INTFLAG.reg & SERCOM_SPI_INTFLAG_TXC) == 0);
     c56:	7e13      	ldrb	r3, [r2, #24]
     c58:	4219      	tst	r1, r3
     c5a:	d0fc      	beq.n	c56 <EVE_cmd_text.part.3+0x1a>
     c5c:	2102      	movs	r1, #2
		spi_transmit((uint8_t)(x0 >> 8));
     c5e:	123f      	asrs	r7, r7, #8
			EVE_SPI->SPI.DATA.reg = data;
     c60:	b2ff      	uxtb	r7, r7
			(void) EVE_SPI->SPI.DATA.reg; /* dummy read-access to clear SERCOM_SPI_INTFLAG_RXC */
     c62:	6a93      	ldr	r3, [r2, #40]	; 0x28
			EVE_SPI->SPI.DATA.reg = data;
     c64:	6297      	str	r7, [r2, #40]	; 0x28
			while((EVE_SPI->SPI.INTFLAG.reg & SERCOM_SPI_INTFLAG_TXC) == 0);
     c66:	4a20      	ldr	r2, [pc, #128]	; (ce8 <EVE_cmd_text.part.3+0xac>)
     c68:	7e13      	ldrb	r3, [r2, #24]
     c6a:	4219      	tst	r1, r3
     c6c:	d0fc      	beq.n	c68 <EVE_cmd_text.part.3+0x2c>
     c6e:	2102      	movs	r1, #2
			(void) EVE_SPI->SPI.DATA.reg; /* dummy read-access to clear SERCOM_SPI_INTFLAG_RXC */
     c70:	6a93      	ldr	r3, [r2, #40]	; 0x28
			EVE_SPI->SPI.DATA.reg = data;
     c72:	b2f3      	uxtb	r3, r6
     c74:	6293      	str	r3, [r2, #40]	; 0x28
			while((EVE_SPI->SPI.INTFLAG.reg & SERCOM_SPI_INTFLAG_TXC) == 0);
     c76:	4a1c      	ldr	r2, [pc, #112]	; (ce8 <EVE_cmd_text.part.3+0xac>)
     c78:	7e13      	ldrb	r3, [r2, #24]
     c7a:	4219      	tst	r1, r3
     c7c:	d0fc      	beq.n	c78 <EVE_cmd_text.part.3+0x3c>
     c7e:	2102      	movs	r1, #2
		spi_transmit((uint8_t)(y0 >> 8));
     c80:	1236      	asrs	r6, r6, #8
			EVE_SPI->SPI.DATA.reg = data;
     c82:	b2f6      	uxtb	r6, r6
			(void) EVE_SPI->SPI.DATA.reg; /* dummy read-access to clear SERCOM_SPI_INTFLAG_RXC */
     c84:	6a93      	ldr	r3, [r2, #40]	; 0x28
			EVE_SPI->SPI.DATA.reg = data;
     c86:	6296      	str	r6, [r2, #40]	; 0x28
			while((EVE_SPI->SPI.INTFLAG.reg & SERCOM_SPI_INTFLAG_TXC) == 0);
     c88:	4a17      	ldr	r2, [pc, #92]	; (ce8 <EVE_cmd_text.part.3+0xac>)
     c8a:	7e13      	ldrb	r3, [r2, #24]
     c8c:	4219      	tst	r1, r3
     c8e:	d0fc      	beq.n	c8a <EVE_cmd_text.part.3+0x4e>
     c90:	2102      	movs	r1, #2
			(void) EVE_SPI->SPI.DATA.reg; /* dummy read-access to clear SERCOM_SPI_INTFLAG_RXC */
     c92:	6a93      	ldr	r3, [r2, #40]	; 0x28
			EVE_SPI->SPI.DATA.reg = data;
     c94:	b2eb      	uxtb	r3, r5
     c96:	6293      	str	r3, [r2, #40]	; 0x28
			while((EVE_SPI->SPI.INTFLAG.reg & SERCOM_SPI_INTFLAG_TXC) == 0);
     c98:	4a13      	ldr	r2, [pc, #76]	; (ce8 <EVE_cmd_text.part.3+0xac>)
     c9a:	7e13      	ldrb	r3, [r2, #24]
     c9c:	4219      	tst	r1, r3
     c9e:	d0fc      	beq.n	c9a <EVE_cmd_text.part.3+0x5e>
     ca0:	2102      	movs	r1, #2
		spi_transmit((uint8_t)(font >> 8));
     ca2:	122d      	asrs	r5, r5, #8
			EVE_SPI->SPI.DATA.reg = data;
     ca4:	b2ed      	uxtb	r5, r5
			(void) EVE_SPI->SPI.DATA.reg; /* dummy read-access to clear SERCOM_SPI_INTFLAG_RXC */
     ca6:	6a93      	ldr	r3, [r2, #40]	; 0x28
			EVE_SPI->SPI.DATA.reg = data;
     ca8:	6295      	str	r5, [r2, #40]	; 0x28
			while((EVE_SPI->SPI.INTFLAG.reg & SERCOM_SPI_INTFLAG_TXC) == 0);
     caa:	4a0f      	ldr	r2, [pc, #60]	; (ce8 <EVE_cmd_text.part.3+0xac>)
     cac:	7e13      	ldrb	r3, [r2, #24]
     cae:	4219      	tst	r1, r3
     cb0:	d0fc      	beq.n	cac <EVE_cmd_text.part.3+0x70>
     cb2:	2102      	movs	r1, #2
			(void) EVE_SPI->SPI.DATA.reg; /* dummy read-access to clear SERCOM_SPI_INTFLAG_RXC */
     cb4:	6a93      	ldr	r3, [r2, #40]	; 0x28
			EVE_SPI->SPI.DATA.reg = data;
     cb6:	b2e3      	uxtb	r3, r4
     cb8:	6293      	str	r3, [r2, #40]	; 0x28
			while((EVE_SPI->SPI.INTFLAG.reg & SERCOM_SPI_INTFLAG_TXC) == 0);
     cba:	4a0b      	ldr	r2, [pc, #44]	; (ce8 <EVE_cmd_text.part.3+0xac>)
     cbc:	7e13      	ldrb	r3, [r2, #24]
     cbe:	4219      	tst	r1, r3
     cc0:	d0fc      	beq.n	cbc <EVE_cmd_text.part.3+0x80>
     cc2:	2102      	movs	r1, #2
			EVE_SPI->SPI.DATA.reg = data;
     cc4:	0a24      	lsrs	r4, r4, #8
			(void) EVE_SPI->SPI.DATA.reg; /* dummy read-access to clear SERCOM_SPI_INTFLAG_RXC */
     cc6:	6a93      	ldr	r3, [r2, #40]	; 0x28
			EVE_SPI->SPI.DATA.reg = data;
     cc8:	6294      	str	r4, [r2, #40]	; 0x28
			while((EVE_SPI->SPI.INTFLAG.reg & SERCOM_SPI_INTFLAG_TXC) == 0);
     cca:	4a07      	ldr	r2, [pc, #28]	; (ce8 <EVE_cmd_text.part.3+0xac>)
     ccc:	7e13      	ldrb	r3, [r2, #24]
     cce:	4219      	tst	r1, r3
     cd0:	d0fc      	beq.n	ccc <EVE_cmd_text.part.3+0x90>
			(void) EVE_SPI->SPI.DATA.reg; /* dummy read-access to clear SERCOM_SPI_INTFLAG_RXC */
     cd2:	6a93      	ldr	r3, [r2, #40]	; 0x28
		EVE_write_string(text);
     cd4:	9806      	ldr	r0, [sp, #24]
     cd6:	4b05      	ldr	r3, [pc, #20]	; (cec <EVE_cmd_text.part.3+0xb0>)
     cd8:	4798      	blx	r3
			PORT->Group[EVE_CS_PORT].OUTSET.reg = EVE_CS;
     cda:	2382      	movs	r3, #130	; 0x82
     cdc:	2220      	movs	r2, #32
     cde:	05db      	lsls	r3, r3, #23
     ce0:	619a      	str	r2, [r3, #24]
}
     ce2:	bdf8      	pop	{r3, r4, r5, r6, r7, pc}
     ce4:	000008a9 	.word	0x000008a9
     ce8:	42000400 	.word	0x42000400
     cec:	00000b75 	.word	0x00000b75

00000cf0 <EVE_cmd_dl>:
{
     cf0:	b510      	push	{r4, lr}
	if(!cmd_burst)
     cf2:	4b05      	ldr	r3, [pc, #20]	; (d08 <EVE_cmd_dl+0x18>)
     cf4:	781b      	ldrb	r3, [r3, #0]
     cf6:	2b00      	cmp	r3, #0
     cf8:	d105      	bne.n	d06 <EVE_cmd_dl+0x16>
		EVE_start_command(command);
     cfa:	4b04      	ldr	r3, [pc, #16]	; (d0c <EVE_cmd_dl+0x1c>)
     cfc:	4798      	blx	r3
     cfe:	2382      	movs	r3, #130	; 0x82
     d00:	2220      	movs	r2, #32
     d02:	05db      	lsls	r3, r3, #23
     d04:	619a      	str	r2, [r3, #24]
}
     d06:	bd10      	pop	{r4, pc}
     d08:	2000044c 	.word	0x2000044c
     d0c:	000008a9 	.word	0x000008a9

00000d10 <EVE_cmd_dl_burst>:
				EVE_dma_buffer[EVE_dma_buffer_index++] = data;
     d10:	4904      	ldr	r1, [pc, #16]	; (d24 <EVE_cmd_dl_burst+0x14>)
     d12:	880b      	ldrh	r3, [r1, #0]
     d14:	b29b      	uxth	r3, r3
     d16:	1c5a      	adds	r2, r3, #1
     d18:	b292      	uxth	r2, r2
     d1a:	800a      	strh	r2, [r1, #0]
     d1c:	4a02      	ldr	r2, [pc, #8]	; (d28 <EVE_cmd_dl_burst+0x18>)
     d1e:	009b      	lsls	r3, r3, #2
     d20:	5098      	str	r0, [r3, r2]
}
     d22:	4770      	bx	lr
     d24:	2000047c 	.word	0x2000047c
     d28:	20000480 	.word	0x20000480

00000d2c <EVE_cmd_append_burst>:
{
     d2c:	b530      	push	{r4, r5, lr}
     d2e:	25e2      	movs	r5, #226	; 0xe2
     d30:	4a0c      	ldr	r2, [pc, #48]	; (d64 <EVE_cmd_append_burst+0x38>)
     d32:	426d      	negs	r5, r5
     d34:	8813      	ldrh	r3, [r2, #0]
     d36:	b29b      	uxth	r3, r3
     d38:	1c5c      	adds	r4, r3, #1
     d3a:	b2a4      	uxth	r4, r4
     d3c:	8014      	strh	r4, [r2, #0]
     d3e:	4c0a      	ldr	r4, [pc, #40]	; (d68 <EVE_cmd_append_burst+0x3c>)
     d40:	009b      	lsls	r3, r3, #2
     d42:	511d      	str	r5, [r3, r4]
     d44:	8813      	ldrh	r3, [r2, #0]
     d46:	b29b      	uxth	r3, r3
     d48:	1c5d      	adds	r5, r3, #1
     d4a:	b2ad      	uxth	r5, r5
     d4c:	8015      	strh	r5, [r2, #0]
     d4e:	009b      	lsls	r3, r3, #2
     d50:	5118      	str	r0, [r3, r4]
     d52:	8813      	ldrh	r3, [r2, #0]
     d54:	b29b      	uxth	r3, r3
     d56:	1c58      	adds	r0, r3, #1
     d58:	b280      	uxth	r0, r0
     d5a:	009b      	lsls	r3, r3, #2
     d5c:	8010      	strh	r0, [r2, #0]
     d5e:	5119      	str	r1, [r3, r4]
}
     d60:	bd30      	pop	{r4, r5, pc}
     d62:	46c0      	nop			; (mov r8, r8)
     d64:	2000047c 	.word	0x2000047c
     d68:	20000480 	.word	0x20000480

00000d6c <EVE_cmd_bgcolor>:
{
     d6c:	b510      	push	{r4, lr}
	if(!cmd_burst)
     d6e:	4b19      	ldr	r3, [pc, #100]	; (dd4 <EVE_cmd_bgcolor+0x68>)
{
     d70:	0004      	movs	r4, r0
	if(!cmd_burst)
     d72:	781b      	ldrb	r3, [r3, #0]
     d74:	2b00      	cmp	r3, #0
     d76:	d000      	beq.n	d7a <EVE_cmd_bgcolor+0xe>
}
     d78:	bd10      	pop	{r4, pc}
		EVE_start_command(CMD_BGCOLOR);
     d7a:	20f7      	movs	r0, #247	; 0xf7
     d7c:	4b16      	ldr	r3, [pc, #88]	; (dd8 <EVE_cmd_bgcolor+0x6c>)
     d7e:	4240      	negs	r0, r0
     d80:	4798      	blx	r3
     d82:	23ff      	movs	r3, #255	; 0xff
			while((EVE_SPI->SPI.INTFLAG.reg & SERCOM_SPI_INTFLAG_TXC) == 0);
     d84:	2102      	movs	r1, #2
			EVE_SPI->SPI.DATA.reg = data;
     d86:	4a15      	ldr	r2, [pc, #84]	; (ddc <EVE_cmd_bgcolor+0x70>)
     d88:	4023      	ands	r3, r4
     d8a:	6293      	str	r3, [r2, #40]	; 0x28
			while((EVE_SPI->SPI.INTFLAG.reg & SERCOM_SPI_INTFLAG_TXC) == 0);
     d8c:	7e13      	ldrb	r3, [r2, #24]
     d8e:	4219      	tst	r1, r3
     d90:	d0fc      	beq.n	d8c <EVE_cmd_bgcolor+0x20>
     d92:	2102      	movs	r1, #2
			(void) EVE_SPI->SPI.DATA.reg; /* dummy read-access to clear SERCOM_SPI_INTFLAG_RXC */
     d94:	6a93      	ldr	r3, [r2, #40]	; 0x28
     d96:	0423      	lsls	r3, r4, #16
     d98:	0e1b      	lsrs	r3, r3, #24
			EVE_SPI->SPI.DATA.reg = data;
     d9a:	6293      	str	r3, [r2, #40]	; 0x28
			while((EVE_SPI->SPI.INTFLAG.reg & SERCOM_SPI_INTFLAG_TXC) == 0);
     d9c:	4a0f      	ldr	r2, [pc, #60]	; (ddc <EVE_cmd_bgcolor+0x70>)
     d9e:	7e13      	ldrb	r3, [r2, #24]
     da0:	4219      	tst	r1, r3
     da2:	d0fc      	beq.n	d9e <EVE_cmd_bgcolor+0x32>
     da4:	2102      	movs	r1, #2
     da6:	0224      	lsls	r4, r4, #8
     da8:	0e24      	lsrs	r4, r4, #24
			(void) EVE_SPI->SPI.DATA.reg; /* dummy read-access to clear SERCOM_SPI_INTFLAG_RXC */
     daa:	6a93      	ldr	r3, [r2, #40]	; 0x28
			EVE_SPI->SPI.DATA.reg = data;
     dac:	6294      	str	r4, [r2, #40]	; 0x28
			while((EVE_SPI->SPI.INTFLAG.reg & SERCOM_SPI_INTFLAG_TXC) == 0);
     dae:	4a0b      	ldr	r2, [pc, #44]	; (ddc <EVE_cmd_bgcolor+0x70>)
     db0:	7e13      	ldrb	r3, [r2, #24]
     db2:	4219      	tst	r1, r3
     db4:	d0fc      	beq.n	db0 <EVE_cmd_bgcolor+0x44>
			(void) EVE_SPI->SPI.DATA.reg; /* dummy read-access to clear SERCOM_SPI_INTFLAG_RXC */
     db6:	6a93      	ldr	r3, [r2, #40]	; 0x28
			EVE_SPI->SPI.DATA.reg = data;
     db8:	2300      	movs	r3, #0
			while((EVE_SPI->SPI.INTFLAG.reg & SERCOM_SPI_INTFLAG_TXC) == 0);
     dba:	2102      	movs	r1, #2
			EVE_SPI->SPI.DATA.reg = data;
     dbc:	6293      	str	r3, [r2, #40]	; 0x28
			while((EVE_SPI->SPI.INTFLAG.reg & SERCOM_SPI_INTFLAG_TXC) == 0);
     dbe:	4a07      	ldr	r2, [pc, #28]	; (ddc <EVE_cmd_bgcolor+0x70>)
     dc0:	7e13      	ldrb	r3, [r2, #24]
     dc2:	4219      	tst	r1, r3
     dc4:	d0fc      	beq.n	dc0 <EVE_cmd_bgcolor+0x54>
			(void) EVE_SPI->SPI.DATA.reg; /* dummy read-access to clear SERCOM_SPI_INTFLAG_RXC */
     dc6:	6a93      	ldr	r3, [r2, #40]	; 0x28
			PORT->Group[EVE_CS_PORT].OUTSET.reg = EVE_CS;
     dc8:	2382      	movs	r3, #130	; 0x82
     dca:	2220      	movs	r2, #32
     dcc:	05db      	lsls	r3, r3, #23
     dce:	619a      	str	r2, [r3, #24]
}
     dd0:	e7d2      	b.n	d78 <EVE_cmd_bgcolor+0xc>
     dd2:	46c0      	nop			; (mov r8, r8)
     dd4:	2000044c 	.word	0x2000044c
     dd8:	000008a9 	.word	0x000008a9
     ddc:	42000400 	.word	0x42000400

00000de0 <EVE_cmd_button_burst>:
{
     de0:	b5f0      	push	{r4, r5, r6, r7, lr}
     de2:	46d6      	mov	lr, sl
     de4:	464f      	mov	r7, r9
     de6:	4646      	mov	r6, r8
     de8:	b5c0      	push	{r6, r7, lr}
     dea:	b082      	sub	sp, #8
     dec:	ac0a      	add	r4, sp, #40	; 0x28
     dee:	4699      	mov	r9, r3
     df0:	2300      	movs	r3, #0
     df2:	5ee4      	ldrsh	r4, [r4, r3]
				EVE_dma_buffer[EVE_dma_buffer_index++] = data;
     df4:	23f3      	movs	r3, #243	; 0xf3
     df6:	4692      	mov	sl, r2
     df8:	466a      	mov	r2, sp
     dfa:	46a4      	mov	ip, r4
     dfc:	ac0b      	add	r4, sp, #44	; 0x2c
     dfe:	8826      	ldrh	r6, [r4, #0]
     e00:	4c17      	ldr	r4, [pc, #92]	; (e60 <EVE_cmd_button_burst+0x80>)
     e02:	425b      	negs	r3, r3
     e04:	8825      	ldrh	r5, [r4, #0]
	spi_transmit_burst((uint32_t) x0 + ((uint32_t) y0 << 16));
     e06:	0409      	lsls	r1, r1, #16
     e08:	b2ad      	uxth	r5, r5
     e0a:	1c6f      	adds	r7, r5, #1
     e0c:	b2bf      	uxth	r7, r7
     e0e:	8027      	strh	r7, [r4, #0]
     e10:	4f14      	ldr	r7, [pc, #80]	; (e64 <EVE_cmd_button_burst+0x84>)
     e12:	00ad      	lsls	r5, r5, #2
     e14:	51eb      	str	r3, [r5, r7]
     e16:	8825      	ldrh	r5, [r4, #0]
     e18:	1808      	adds	r0, r1, r0
     e1a:	b2ad      	uxth	r5, r5
     e1c:	1c6b      	adds	r3, r5, #1
     e1e:	80d3      	strh	r3, [r2, #6]
     e20:	88d3      	ldrh	r3, [r2, #6]
     e22:	00ad      	lsls	r5, r5, #2
     e24:	8023      	strh	r3, [r4, #0]
	spi_transmit_burst((uint32_t) w0 + ((uint32_t) h0 << 16));
     e26:	464b      	mov	r3, r9
     e28:	8821      	ldrh	r1, [r4, #0]
     e2a:	51e8      	str	r0, [r5, r7]
     e2c:	b289      	uxth	r1, r1
     e2e:	1c48      	adds	r0, r1, #1
     e30:	b280      	uxth	r0, r0
     e32:	041b      	lsls	r3, r3, #16
     e34:	8020      	strh	r0, [r4, #0]
     e36:	0089      	lsls	r1, r1, #2
     e38:	4453      	add	r3, sl
     e3a:	51cb      	str	r3, [r1, r7]
     e3c:	8823      	ldrh	r3, [r4, #0]
	spi_transmit_burst((uint32_t) font + ((uint32_t) options << 16));
     e3e:	0436      	lsls	r6, r6, #16
     e40:	b29b      	uxth	r3, r3
     e42:	4466      	add	r6, ip
     e44:	1c5a      	adds	r2, r3, #1
     e46:	009b      	lsls	r3, r3, #2
     e48:	b292      	uxth	r2, r2
     e4a:	51de      	str	r6, [r3, r7]
	EVE_write_string(text);
     e4c:	980c      	ldr	r0, [sp, #48]	; 0x30
     e4e:	4b06      	ldr	r3, [pc, #24]	; (e68 <EVE_cmd_button_burst+0x88>)
     e50:	8022      	strh	r2, [r4, #0]
     e52:	4798      	blx	r3
}
     e54:	b002      	add	sp, #8
     e56:	bc1c      	pop	{r2, r3, r4}
     e58:	4690      	mov	r8, r2
     e5a:	4699      	mov	r9, r3
     e5c:	46a2      	mov	sl, r4
     e5e:	bdf0      	pop	{r4, r5, r6, r7, pc}
     e60:	2000047c 	.word	0x2000047c
     e64:	20000480 	.word	0x20000480
     e68:	00000b75 	.word	0x00000b75

00000e6c <EVE_cmd_fgcolor_burst>:
     e6c:	4a09      	ldr	r2, [pc, #36]	; (e94 <EVE_cmd_fgcolor_burst+0x28>)
{
     e6e:	b510      	push	{r4, lr}
     e70:	8813      	ldrh	r3, [r2, #0]
     e72:	4c09      	ldr	r4, [pc, #36]	; (e98 <EVE_cmd_fgcolor_burst+0x2c>)
     e74:	b29b      	uxth	r3, r3
     e76:	1c59      	adds	r1, r3, #1
     e78:	b289      	uxth	r1, r1
     e7a:	8011      	strh	r1, [r2, #0]
     e7c:	21f6      	movs	r1, #246	; 0xf6
     e7e:	009b      	lsls	r3, r3, #2
     e80:	4249      	negs	r1, r1
     e82:	5119      	str	r1, [r3, r4]
     e84:	8813      	ldrh	r3, [r2, #0]
     e86:	b29b      	uxth	r3, r3
     e88:	1c59      	adds	r1, r3, #1
     e8a:	b289      	uxth	r1, r1
     e8c:	009b      	lsls	r3, r3, #2
     e8e:	8011      	strh	r1, [r2, #0]
     e90:	5118      	str	r0, [r3, r4]
}
     e92:	bd10      	pop	{r4, pc}
     e94:	2000047c 	.word	0x2000047c
     e98:	20000480 	.word	0x20000480

00000e9c <EVE_cmd_number_burst>:
{
     e9c:	b5f0      	push	{r4, r5, r6, r7, lr}
     e9e:	27d2      	movs	r7, #210	; 0xd2
     ea0:	4c12      	ldr	r4, [pc, #72]	; (eec <EVE_cmd_number_burst+0x50>)
     ea2:	427f      	negs	r7, r7
     ea4:	8825      	ldrh	r5, [r4, #0]
	spi_transmit_burst((uint32_t) x0 + ((uint32_t) y0 << 16));
     ea6:	0409      	lsls	r1, r1, #16
     ea8:	b2ad      	uxth	r5, r5
     eaa:	1c6e      	adds	r6, r5, #1
     eac:	b2b6      	uxth	r6, r6
     eae:	8026      	strh	r6, [r4, #0]
     eb0:	4e0f      	ldr	r6, [pc, #60]	; (ef0 <EVE_cmd_number_burst+0x54>)
     eb2:	00ad      	lsls	r5, r5, #2
     eb4:	51af      	str	r7, [r5, r6]
     eb6:	8825      	ldrh	r5, [r4, #0]
     eb8:	1808      	adds	r0, r1, r0
     eba:	b2ad      	uxth	r5, r5
     ebc:	1c6f      	adds	r7, r5, #1
     ebe:	b2bf      	uxth	r7, r7
     ec0:	8027      	strh	r7, [r4, #0]
     ec2:	8821      	ldrh	r1, [r4, #0]
     ec4:	00ad      	lsls	r5, r5, #2
     ec6:	b289      	uxth	r1, r1
     ec8:	51a8      	str	r0, [r5, r6]
     eca:	1c48      	adds	r0, r1, #1
     ecc:	b280      	uxth	r0, r0
     ece:	8020      	strh	r0, [r4, #0]
	spi_transmit_burst((uint32_t) font + ((uint32_t) options << 16));
     ed0:	041b      	lsls	r3, r3, #16
     ed2:	189a      	adds	r2, r3, r2
     ed4:	8823      	ldrh	r3, [r4, #0]
     ed6:	0089      	lsls	r1, r1, #2
     ed8:	b29b      	uxth	r3, r3
     eda:	518a      	str	r2, [r1, r6]
     edc:	1c5a      	adds	r2, r3, #1
     ede:	b292      	uxth	r2, r2
     ee0:	8022      	strh	r2, [r4, #0]
     ee2:	9a05      	ldr	r2, [sp, #20]
     ee4:	009b      	lsls	r3, r3, #2
     ee6:	519a      	str	r2, [r3, r6]
}
     ee8:	bdf0      	pop	{r4, r5, r6, r7, pc}
     eea:	46c0      	nop			; (mov r8, r8)
     eec:	2000047c 	.word	0x2000047c
     ef0:	20000480 	.word	0x20000480

00000ef4 <EVE_cmd_rotate_burst>:
     ef4:	4a09      	ldr	r2, [pc, #36]	; (f1c <EVE_cmd_rotate_burst+0x28>)
{
     ef6:	b510      	push	{r4, lr}
     ef8:	8813      	ldrh	r3, [r2, #0]
     efa:	4c09      	ldr	r4, [pc, #36]	; (f20 <EVE_cmd_rotate_burst+0x2c>)
     efc:	b29b      	uxth	r3, r3
     efe:	1c59      	adds	r1, r3, #1
     f00:	b289      	uxth	r1, r1
     f02:	8011      	strh	r1, [r2, #0]
     f04:	21d7      	movs	r1, #215	; 0xd7
     f06:	009b      	lsls	r3, r3, #2
     f08:	4249      	negs	r1, r1
     f0a:	5119      	str	r1, [r3, r4]
     f0c:	8813      	ldrh	r3, [r2, #0]
     f0e:	b29b      	uxth	r3, r3
     f10:	1c59      	adds	r1, r3, #1
     f12:	b289      	uxth	r1, r1
     f14:	009b      	lsls	r3, r3, #2
     f16:	8011      	strh	r1, [r2, #0]
     f18:	5118      	str	r0, [r3, r4]
}
     f1a:	bd10      	pop	{r4, pc}
     f1c:	2000047c 	.word	0x2000047c
     f20:	20000480 	.word	0x20000480

00000f24 <EVE_cmd_setbitmap>:
{
     f24:	b5f8      	push	{r3, r4, r5, r6, r7, lr}
     f26:	001c      	movs	r4, r3
	if(!cmd_burst)
     f28:	4b39      	ldr	r3, [pc, #228]	; (1010 <STACK_SIZE+0x10>)
{
     f2a:	0007      	movs	r7, r0
	if(!cmd_burst)
     f2c:	781b      	ldrb	r3, [r3, #0]
{
     f2e:	000e      	movs	r6, r1
     f30:	0015      	movs	r5, r2
	if(!cmd_burst)
     f32:	2b00      	cmp	r3, #0
     f34:	d000      	beq.n	f38 <EVE_cmd_setbitmap+0x14>
}
     f36:	bdf8      	pop	{r3, r4, r5, r6, r7, pc}
		EVE_start_command(CMD_SETBITMAP);
     f38:	20bd      	movs	r0, #189	; 0xbd
     f3a:	4b36      	ldr	r3, [pc, #216]	; (1014 <STACK_SIZE+0x14>)
     f3c:	4240      	negs	r0, r0
     f3e:	4798      	blx	r3
     f40:	23ff      	movs	r3, #255	; 0xff
			while((EVE_SPI->SPI.INTFLAG.reg & SERCOM_SPI_INTFLAG_TXC) == 0);
     f42:	2102      	movs	r1, #2
			EVE_SPI->SPI.DATA.reg = data;
     f44:	4a34      	ldr	r2, [pc, #208]	; (1018 <STACK_SIZE+0x18>)
     f46:	403b      	ands	r3, r7
     f48:	6293      	str	r3, [r2, #40]	; 0x28
			while((EVE_SPI->SPI.INTFLAG.reg & SERCOM_SPI_INTFLAG_TXC) == 0);
     f4a:	7e13      	ldrb	r3, [r2, #24]
     f4c:	4219      	tst	r1, r3
     f4e:	d0fc      	beq.n	f4a <EVE_cmd_setbitmap+0x26>
     f50:	2102      	movs	r1, #2
			(void) EVE_SPI->SPI.DATA.reg; /* dummy read-access to clear SERCOM_SPI_INTFLAG_RXC */
     f52:	6a93      	ldr	r3, [r2, #40]	; 0x28
     f54:	043b      	lsls	r3, r7, #16
     f56:	0e1b      	lsrs	r3, r3, #24
			EVE_SPI->SPI.DATA.reg = data;
     f58:	6293      	str	r3, [r2, #40]	; 0x28
			while((EVE_SPI->SPI.INTFLAG.reg & SERCOM_SPI_INTFLAG_TXC) == 0);
     f5a:	4a2f      	ldr	r2, [pc, #188]	; (1018 <STACK_SIZE+0x18>)
     f5c:	7e13      	ldrb	r3, [r2, #24]
     f5e:	4219      	tst	r1, r3
     f60:	d0fc      	beq.n	f5c <EVE_cmd_setbitmap+0x38>
     f62:	2102      	movs	r1, #2
			(void) EVE_SPI->SPI.DATA.reg; /* dummy read-access to clear SERCOM_SPI_INTFLAG_RXC */
     f64:	6a93      	ldr	r3, [r2, #40]	; 0x28
     f66:	023b      	lsls	r3, r7, #8
     f68:	0e1b      	lsrs	r3, r3, #24
			EVE_SPI->SPI.DATA.reg = data;
     f6a:	6293      	str	r3, [r2, #40]	; 0x28
			while((EVE_SPI->SPI.INTFLAG.reg & SERCOM_SPI_INTFLAG_TXC) == 0);
     f6c:	4a2a      	ldr	r2, [pc, #168]	; (1018 <STACK_SIZE+0x18>)
     f6e:	7e13      	ldrb	r3, [r2, #24]
     f70:	4219      	tst	r1, r3
     f72:	d0fc      	beq.n	f6e <EVE_cmd_setbitmap+0x4a>
     f74:	2102      	movs	r1, #2
		spi_transmit((uint8_t)(addr >> 24));
     f76:	0e3f      	lsrs	r7, r7, #24
			(void) EVE_SPI->SPI.DATA.reg; /* dummy read-access to clear SERCOM_SPI_INTFLAG_RXC */
     f78:	6a93      	ldr	r3, [r2, #40]	; 0x28
			EVE_SPI->SPI.DATA.reg = data;
     f7a:	6297      	str	r7, [r2, #40]	; 0x28
			while((EVE_SPI->SPI.INTFLAG.reg & SERCOM_SPI_INTFLAG_TXC) == 0);
     f7c:	4a26      	ldr	r2, [pc, #152]	; (1018 <STACK_SIZE+0x18>)
     f7e:	7e13      	ldrb	r3, [r2, #24]
     f80:	4219      	tst	r1, r3
     f82:	d0fc      	beq.n	f7e <EVE_cmd_setbitmap+0x5a>
     f84:	2102      	movs	r1, #2
			(void) EVE_SPI->SPI.DATA.reg; /* dummy read-access to clear SERCOM_SPI_INTFLAG_RXC */
     f86:	6a93      	ldr	r3, [r2, #40]	; 0x28
			EVE_SPI->SPI.DATA.reg = data;
     f88:	b2f3      	uxtb	r3, r6
     f8a:	6293      	str	r3, [r2, #40]	; 0x28
			while((EVE_SPI->SPI.INTFLAG.reg & SERCOM_SPI_INTFLAG_TXC) == 0);
     f8c:	4a22      	ldr	r2, [pc, #136]	; (1018 <STACK_SIZE+0x18>)
     f8e:	7e13      	ldrb	r3, [r2, #24]
     f90:	4219      	tst	r1, r3
     f92:	d0fc      	beq.n	f8e <EVE_cmd_setbitmap+0x6a>
     f94:	2102      	movs	r1, #2
			EVE_SPI->SPI.DATA.reg = data;
     f96:	0a36      	lsrs	r6, r6, #8
			(void) EVE_SPI->SPI.DATA.reg; /* dummy read-access to clear SERCOM_SPI_INTFLAG_RXC */
     f98:	6a93      	ldr	r3, [r2, #40]	; 0x28
			EVE_SPI->SPI.DATA.reg = data;
     f9a:	6296      	str	r6, [r2, #40]	; 0x28
			while((EVE_SPI->SPI.INTFLAG.reg & SERCOM_SPI_INTFLAG_TXC) == 0);
     f9c:	4a1e      	ldr	r2, [pc, #120]	; (1018 <STACK_SIZE+0x18>)
     f9e:	7e13      	ldrb	r3, [r2, #24]
     fa0:	4219      	tst	r1, r3
     fa2:	d0fc      	beq.n	f9e <EVE_cmd_setbitmap+0x7a>
     fa4:	2102      	movs	r1, #2
			(void) EVE_SPI->SPI.DATA.reg; /* dummy read-access to clear SERCOM_SPI_INTFLAG_RXC */
     fa6:	6a93      	ldr	r3, [r2, #40]	; 0x28
			EVE_SPI->SPI.DATA.reg = data;
     fa8:	b2eb      	uxtb	r3, r5
     faa:	6293      	str	r3, [r2, #40]	; 0x28
			while((EVE_SPI->SPI.INTFLAG.reg & SERCOM_SPI_INTFLAG_TXC) == 0);
     fac:	4a1a      	ldr	r2, [pc, #104]	; (1018 <STACK_SIZE+0x18>)
     fae:	7e13      	ldrb	r3, [r2, #24]
     fb0:	4219      	tst	r1, r3
     fb2:	d0fc      	beq.n	fae <EVE_cmd_setbitmap+0x8a>
     fb4:	2102      	movs	r1, #2
			EVE_SPI->SPI.DATA.reg = data;
     fb6:	0a2d      	lsrs	r5, r5, #8
			(void) EVE_SPI->SPI.DATA.reg; /* dummy read-access to clear SERCOM_SPI_INTFLAG_RXC */
     fb8:	6a93      	ldr	r3, [r2, #40]	; 0x28
			EVE_SPI->SPI.DATA.reg = data;
     fba:	6295      	str	r5, [r2, #40]	; 0x28
			while((EVE_SPI->SPI.INTFLAG.reg & SERCOM_SPI_INTFLAG_TXC) == 0);
     fbc:	4a16      	ldr	r2, [pc, #88]	; (1018 <STACK_SIZE+0x18>)
     fbe:	7e13      	ldrb	r3, [r2, #24]
     fc0:	4219      	tst	r1, r3
     fc2:	d0fc      	beq.n	fbe <EVE_cmd_setbitmap+0x9a>
     fc4:	2102      	movs	r1, #2
			(void) EVE_SPI->SPI.DATA.reg; /* dummy read-access to clear SERCOM_SPI_INTFLAG_RXC */
     fc6:	6a93      	ldr	r3, [r2, #40]	; 0x28
			EVE_SPI->SPI.DATA.reg = data;
     fc8:	b2e3      	uxtb	r3, r4
     fca:	6293      	str	r3, [r2, #40]	; 0x28
			while((EVE_SPI->SPI.INTFLAG.reg & SERCOM_SPI_INTFLAG_TXC) == 0);
     fcc:	4a12      	ldr	r2, [pc, #72]	; (1018 <STACK_SIZE+0x18>)
     fce:	7e13      	ldrb	r3, [r2, #24]
     fd0:	4219      	tst	r1, r3
     fd2:	d0fc      	beq.n	fce <EVE_cmd_setbitmap+0xaa>
     fd4:	2102      	movs	r1, #2
			EVE_SPI->SPI.DATA.reg = data;
     fd6:	0a24      	lsrs	r4, r4, #8
			(void) EVE_SPI->SPI.DATA.reg; /* dummy read-access to clear SERCOM_SPI_INTFLAG_RXC */
     fd8:	6a93      	ldr	r3, [r2, #40]	; 0x28
			EVE_SPI->SPI.DATA.reg = data;
     fda:	6294      	str	r4, [r2, #40]	; 0x28
			while((EVE_SPI->SPI.INTFLAG.reg & SERCOM_SPI_INTFLAG_TXC) == 0);
     fdc:	4a0e      	ldr	r2, [pc, #56]	; (1018 <STACK_SIZE+0x18>)
     fde:	7e13      	ldrb	r3, [r2, #24]
     fe0:	4219      	tst	r1, r3
     fe2:	d0fc      	beq.n	fde <EVE_cmd_setbitmap+0xba>
			(void) EVE_SPI->SPI.DATA.reg; /* dummy read-access to clear SERCOM_SPI_INTFLAG_RXC */
     fe4:	6a93      	ldr	r3, [r2, #40]	; 0x28
			EVE_SPI->SPI.DATA.reg = data;
     fe6:	2300      	movs	r3, #0
			while((EVE_SPI->SPI.INTFLAG.reg & SERCOM_SPI_INTFLAG_TXC) == 0);
     fe8:	2102      	movs	r1, #2
			EVE_SPI->SPI.DATA.reg = data;
     fea:	6293      	str	r3, [r2, #40]	; 0x28
			while((EVE_SPI->SPI.INTFLAG.reg & SERCOM_SPI_INTFLAG_TXC) == 0);
     fec:	4a0a      	ldr	r2, [pc, #40]	; (1018 <STACK_SIZE+0x18>)
     fee:	7e13      	ldrb	r3, [r2, #24]
     ff0:	4219      	tst	r1, r3
     ff2:	d0fc      	beq.n	fee <EVE_cmd_setbitmap+0xca>
			(void) EVE_SPI->SPI.DATA.reg; /* dummy read-access to clear SERCOM_SPI_INTFLAG_RXC */
     ff4:	6a93      	ldr	r3, [r2, #40]	; 0x28
			EVE_SPI->SPI.DATA.reg = data;
     ff6:	2300      	movs	r3, #0
			while((EVE_SPI->SPI.INTFLAG.reg & SERCOM_SPI_INTFLAG_TXC) == 0);
     ff8:	2102      	movs	r1, #2
			EVE_SPI->SPI.DATA.reg = data;
     ffa:	6293      	str	r3, [r2, #40]	; 0x28
			while((EVE_SPI->SPI.INTFLAG.reg & SERCOM_SPI_INTFLAG_TXC) == 0);
     ffc:	4a06      	ldr	r2, [pc, #24]	; (1018 <STACK_SIZE+0x18>)
     ffe:	7e13      	ldrb	r3, [r2, #24]
    1000:	4219      	tst	r1, r3
    1002:	d0fc      	beq.n	ffe <EVE_cmd_setbitmap+0xda>
			(void) EVE_SPI->SPI.DATA.reg; /* dummy read-access to clear SERCOM_SPI_INTFLAG_RXC */
    1004:	6a93      	ldr	r3, [r2, #40]	; 0x28
			PORT->Group[EVE_CS_PORT].OUTSET.reg = EVE_CS;
    1006:	2382      	movs	r3, #130	; 0x82
    1008:	2220      	movs	r2, #32
    100a:	05db      	lsls	r3, r3, #23
    100c:	619a      	str	r2, [r3, #24]
}
    100e:	e792      	b.n	f36 <EVE_cmd_setbitmap+0x12>
    1010:	2000044c 	.word	0x2000044c
    1014:	000008a9 	.word	0x000008a9
    1018:	42000400 	.word	0x42000400

0000101c <EVE_cmd_setbitmap_burst>:
{
    101c:	b5f0      	push	{r4, r5, r6, r7, lr}
				EVE_dma_buffer[EVE_dma_buffer_index++] = data;
    101e:	27bd      	movs	r7, #189	; 0xbd
    1020:	4c10      	ldr	r4, [pc, #64]	; (1064 <EVE_cmd_setbitmap_burst+0x48>)
    1022:	427f      	negs	r7, r7
    1024:	8825      	ldrh	r5, [r4, #0]
	spi_transmit_burst((uint32_t) fmt + ((uint32_t) width << 16));
    1026:	0412      	lsls	r2, r2, #16
    1028:	b2ad      	uxth	r5, r5
    102a:	1c6e      	adds	r6, r5, #1
    102c:	b2b6      	uxth	r6, r6
    102e:	8026      	strh	r6, [r4, #0]
    1030:	4e0d      	ldr	r6, [pc, #52]	; (1068 <EVE_cmd_setbitmap_burst+0x4c>)
    1032:	00ad      	lsls	r5, r5, #2
    1034:	51af      	str	r7, [r5, r6]
    1036:	8825      	ldrh	r5, [r4, #0]
    1038:	1851      	adds	r1, r2, r1
    103a:	b2ad      	uxth	r5, r5
    103c:	1c6f      	adds	r7, r5, #1
    103e:	b2bf      	uxth	r7, r7
    1040:	8027      	strh	r7, [r4, #0]
    1042:	00ad      	lsls	r5, r5, #2
    1044:	51a8      	str	r0, [r5, r6]
    1046:	8820      	ldrh	r0, [r4, #0]
    1048:	b280      	uxth	r0, r0
    104a:	1c45      	adds	r5, r0, #1
    104c:	b2ad      	uxth	r5, r5
    104e:	8025      	strh	r5, [r4, #0]
    1050:	8822      	ldrh	r2, [r4, #0]
    1052:	0080      	lsls	r0, r0, #2
    1054:	b292      	uxth	r2, r2
    1056:	5181      	str	r1, [r0, r6]
    1058:	1c51      	adds	r1, r2, #1
    105a:	b289      	uxth	r1, r1
    105c:	0092      	lsls	r2, r2, #2
	spi_transmit_burst(height);
    105e:	5193      	str	r3, [r2, r6]
    1060:	8021      	strh	r1, [r4, #0]
}
    1062:	bdf0      	pop	{r4, r5, r6, r7, pc}
    1064:	2000047c 	.word	0x2000047c
    1068:	20000480 	.word	0x20000480

0000106c <EVE_cmd_text>:
{
    106c:	b510      	push	{r4, lr}
	if(!cmd_burst)
    106e:	4c05      	ldr	r4, [pc, #20]	; (1084 <EVE_cmd_text+0x18>)
{
    1070:	b082      	sub	sp, #8
	if(!cmd_burst)
    1072:	7824      	ldrb	r4, [r4, #0]
    1074:	2c00      	cmp	r4, #0
    1076:	d103      	bne.n	1080 <EVE_cmd_text+0x14>
    1078:	9c04      	ldr	r4, [sp, #16]
    107a:	9400      	str	r4, [sp, #0]
    107c:	4c02      	ldr	r4, [pc, #8]	; (1088 <EVE_cmd_text+0x1c>)
    107e:	47a0      	blx	r4
}
    1080:	b002      	add	sp, #8
    1082:	bd10      	pop	{r4, pc}
    1084:	2000044c 	.word	0x2000044c
    1088:	00000c3d 	.word	0x00000c3d

0000108c <EVE_cmd_translate_burst>:
{
    108c:	b530      	push	{r4, r5, lr}
    108e:	25d9      	movs	r5, #217	; 0xd9
    1090:	4a0c      	ldr	r2, [pc, #48]	; (10c4 <EVE_cmd_translate_burst+0x38>)
    1092:	426d      	negs	r5, r5
    1094:	8813      	ldrh	r3, [r2, #0]
    1096:	b29b      	uxth	r3, r3
    1098:	1c5c      	adds	r4, r3, #1
    109a:	b2a4      	uxth	r4, r4
    109c:	8014      	strh	r4, [r2, #0]
    109e:	4c0a      	ldr	r4, [pc, #40]	; (10c8 <EVE_cmd_translate_burst+0x3c>)
    10a0:	009b      	lsls	r3, r3, #2
    10a2:	511d      	str	r5, [r3, r4]
    10a4:	8813      	ldrh	r3, [r2, #0]
    10a6:	b29b      	uxth	r3, r3
    10a8:	1c5d      	adds	r5, r3, #1
    10aa:	b2ad      	uxth	r5, r5
    10ac:	8015      	strh	r5, [r2, #0]
    10ae:	009b      	lsls	r3, r3, #2
    10b0:	5118      	str	r0, [r3, r4]
    10b2:	8813      	ldrh	r3, [r2, #0]
    10b4:	b29b      	uxth	r3, r3
    10b6:	1c58      	adds	r0, r3, #1
    10b8:	b280      	uxth	r0, r0
    10ba:	009b      	lsls	r3, r3, #2
    10bc:	8010      	strh	r0, [r2, #0]
    10be:	5119      	str	r1, [r3, r4]
}
    10c0:	bd30      	pop	{r4, r5, pc}
    10c2:	46c0      	nop			; (mov r8, r8)
    10c4:	2000047c 	.word	0x2000047c
    10c8:	20000480 	.word	0x20000480

000010cc <EVE_color_rgb>:
{
    10cc:	b510      	push	{r4, lr}
	if(!cmd_burst)
    10ce:	4b07      	ldr	r3, [pc, #28]	; (10ec <EVE_color_rgb+0x20>)
    10d0:	781b      	ldrb	r3, [r3, #0]
    10d2:	2b00      	cmp	r3, #0
    10d4:	d108      	bne.n	10e8 <EVE_color_rgb+0x1c>
		EVE_start_command(DL_COLOR_RGB | color);
    10d6:	2380      	movs	r3, #128	; 0x80
    10d8:	04db      	lsls	r3, r3, #19
    10da:	4318      	orrs	r0, r3
    10dc:	4b04      	ldr	r3, [pc, #16]	; (10f0 <EVE_color_rgb+0x24>)
    10de:	4798      	blx	r3
			PORT->Group[EVE_CS_PORT].OUTSET.reg = EVE_CS;
    10e0:	2382      	movs	r3, #130	; 0x82
    10e2:	2220      	movs	r2, #32
    10e4:	05db      	lsls	r3, r3, #23
    10e6:	619a      	str	r2, [r3, #24]
}
    10e8:	bd10      	pop	{r4, pc}
    10ea:	46c0      	nop			; (mov r8, r8)
    10ec:	2000044c 	.word	0x2000044c
    10f0:	000008a9 	.word	0x000008a9

000010f4 <EVE_color_rgb_burst>:
				EVE_dma_buffer[EVE_dma_buffer_index++] = data;
    10f4:	4906      	ldr	r1, [pc, #24]	; (1110 <EVE_color_rgb_burst+0x1c>)
    10f6:	880b      	ldrh	r3, [r1, #0]
    10f8:	b29b      	uxth	r3, r3
    10fa:	1c5a      	adds	r2, r3, #1
    10fc:	b292      	uxth	r2, r2
    10fe:	800a      	strh	r2, [r1, #0]
	spi_transmit_burst(DL_COLOR_RGB | color);
    1100:	2280      	movs	r2, #128	; 0x80
    1102:	04d2      	lsls	r2, r2, #19
    1104:	4310      	orrs	r0, r2
    1106:	4a03      	ldr	r2, [pc, #12]	; (1114 <EVE_color_rgb_burst+0x20>)
    1108:	009b      	lsls	r3, r3, #2
    110a:	5098      	str	r0, [r3, r2]
}
    110c:	4770      	bx	lr
    110e:	46c0      	nop			; (mov r8, r8)
    1110:	2000047c 	.word	0x2000047c
    1114:	20000480 	.word	0x20000480

00001118 <DELAY_MS>:

		void DELAY_MS(uint16_t val)
		{
			uint16_t counter;

			while(val > 0)
    1118:	2800      	cmp	r0, #0
    111a:	d00a      	beq.n	1132 <DELAY_MS+0x1a>
		{
    111c:	23fa      	movs	r3, #250	; 0xfa
    111e:	015b      	lsls	r3, r3, #5
			{
				for(counter=0; counter < EVE_DELAY_1MS;counter++)
				{
					__asm__ volatile ("nop");
    1120:	46c0      	nop			; (mov r8, r8)
    1122:	3b01      	subs	r3, #1
    1124:	b29b      	uxth	r3, r3
				for(counter=0; counter < EVE_DELAY_1MS;counter++)
    1126:	2b00      	cmp	r3, #0
    1128:	d1fa      	bne.n	1120 <DELAY_MS+0x8>
				}
				val--;
    112a:	3801      	subs	r0, #1
    112c:	b280      	uxth	r0, r0
			while(val > 0)
    112e:	2800      	cmp	r0, #0
    1130:	d1f4      	bne.n	111c <DELAY_MS+0x4>
			}
		}
    1132:	4770      	bx	lr

00001134 <EVE_init_dma>:

			#if defined  (__SAMC21E18A__) || (__ATSAMC20G17A__)

			void EVE_init_dma(void)
			{
				DMAC->CTRL.reg = 0;
    1134:	2300      	movs	r3, #0
    1136:	4a15      	ldr	r2, [pc, #84]	; (118c <EVE_init_dma+0x58>)
    1138:	8013      	strh	r3, [r2, #0]
				while(DMAC->CTRL.bit.DMAENABLE);
    113a:	8813      	ldrh	r3, [r2, #0]
    113c:	079b      	lsls	r3, r3, #30
    113e:	d4fc      	bmi.n	113a <EVE_init_dma+0x6>
				DMAC->CTRL.bit.SWRST = 1;
    1140:	2101      	movs	r1, #1
    1142:	8813      	ldrh	r3, [r2, #0]
    1144:	430b      	orrs	r3, r1
    1146:	8013      	strh	r3, [r2, #0]
				while(DMAC->CTRL.bit.SWRST); /* wait for the software-reset to be complete */
    1148:	4a10      	ldr	r2, [pc, #64]	; (118c <EVE_init_dma+0x58>)
    114a:	8813      	ldrh	r3, [r2, #0]
    114c:	07db      	lsls	r3, r3, #31
    114e:	0fdb      	lsrs	r3, r3, #31
    1150:	d1fb      	bne.n	114a <EVE_init_dma+0x16>

				DMAC->BASEADDR.reg = (uint32_t) &dmadescriptor;
    1152:	490f      	ldr	r1, [pc, #60]	; (1190 <EVE_init_dma+0x5c>)
				DMAC->WRBADDR.reg = (uint32_t) &dmawriteback;
    1154:	0008      	movs	r0, r1
    1156:	3010      	adds	r0, #16
				DMAC->BASEADDR.reg = (uint32_t) &dmadescriptor;
    1158:	6351      	str	r1, [r2, #52]	; 0x34
				DMAC->WRBADDR.reg = (uint32_t) &dmawriteback;
    115a:	6390      	str	r0, [r2, #56]	; 0x38

				DMAC->CHCTRLB.reg = DMAC_CHCTRLB_TRIGACT_BEAT | DMAC_CHCTRLB_TRIGSRC(EVE_SPI_DMA_TRIGGER); /* beat-transfer, SERCOM0 TX Trigger, level 0, channel-event input / output disabled */
    115c:	480d      	ldr	r0, [pc, #52]	; (1194 <EVE_init_dma+0x60>)
    115e:	6450      	str	r0, [r2, #68]	; 0x44
				DMAC->CHID.reg = EVE_DMA_CHANNEL; /* select channel */
    1160:	203f      	movs	r0, #63	; 0x3f
    1162:	5413      	strb	r3, [r2, r0]
				DMAC->CTRL.reg = DMAC_CTRL_LVLEN0 | DMAC_CTRL_DMAENABLE; /* enable level 0 transfers, enable DMA */
    1164:	30c3      	adds	r0, #195	; 0xc3
    1166:	8010      	strh	r0, [r2, #0]

				dmadescriptor.BTCTRL.reg = DMAC_BTCTRL_SRCINC | DMAC_BTCTRL_VALID; /* increase source-address, beat-size = 8-bit */
    1168:	480b      	ldr	r0, [pc, #44]	; (1198 <EVE_init_dma+0x64>)
    116a:	8008      	strh	r0, [r1, #0]
				dmadescriptor.DSTADDR.reg = (uint32_t) &EVE_SPI->SPI.DATA.reg;
    116c:	480b      	ldr	r0, [pc, #44]	; (119c <EVE_init_dma+0x68>)
    116e:	6088      	str	r0, [r1, #8]
				dmadescriptor.DESCADDR.reg = 0; /* no next descriptor */
    1170:	60cb      	str	r3, [r1, #12]

				DMAC->CHINTENSET.reg = DMAC_CHINTENSET_TCMPL;
    1172:	2102      	movs	r1, #2
    1174:	334d      	adds	r3, #77	; 0x4d
    1176:	54d1      	strb	r1, [r2, r3]
 */
__STATIC_INLINE void __NVIC_SetPriority(IRQn_Type IRQn, uint32_t priority)
{
  if ((int32_t)(IRQn) >= 0)
  {
    NVIC->IP[_IP_IDX(IRQn)]  = ((uint32_t)(NVIC->IP[_IP_IDX(IRQn)]  & ~(0xFFUL << _BIT_SHIFT(IRQn))) |
    1178:	21c1      	movs	r1, #193	; 0xc1
    117a:	4a09      	ldr	r2, [pc, #36]	; (11a0 <EVE_init_dma+0x6c>)
    117c:	0089      	lsls	r1, r1, #2
    117e:	5853      	ldr	r3, [r2, r1]
    1180:	021b      	lsls	r3, r3, #8
    1182:	0a1b      	lsrs	r3, r3, #8
    1184:	5053      	str	r3, [r2, r1]
    NVIC->ISER[0U] = (uint32_t)(1UL << (((uint32_t)IRQn) & 0x1FUL));
    1186:	2380      	movs	r3, #128	; 0x80
    1188:	6013      	str	r3, [r2, #0]
				NVIC_SetPriority(DMAC_IRQn, 0);
				NVIC_EnableIRQ(DMAC_IRQn);
			}
    118a:	4770      	bx	lr
    118c:	41006000 	.word	0x41006000
    1190:	20000450 	.word	0x20000450
    1194:	00800300 	.word	0x00800300
    1198:	00000401 	.word	0x00000401
    119c:	42000428 	.word	0x42000428
    11a0:	e000e100 	.word	0xe000e100

000011a4 <EVE_start_dma_transfer>:

			void EVE_start_dma_transfer(void)
			{
				dmadescriptor.BTCNT.reg = (EVE_dma_buffer_index*4)-1;
    11a4:	490f      	ldr	r1, [pc, #60]	; (11e4 <EVE_start_dma_transfer+0x40>)
    11a6:	4a10      	ldr	r2, [pc, #64]	; (11e8 <EVE_start_dma_transfer+0x44>)
    11a8:	880b      	ldrh	r3, [r1, #0]
			{
    11aa:	b530      	push	{r4, r5, lr}
				dmadescriptor.BTCNT.reg = (EVE_dma_buffer_index*4)-1;
    11ac:	009b      	lsls	r3, r3, #2
    11ae:	3b01      	subs	r3, #1
    11b0:	b29b      	uxth	r3, r3
    11b2:	8053      	strh	r3, [r2, #2]
				dmadescriptor.SRCADDR.reg = (uint32_t) &EVE_dma_buffer[EVE_dma_buffer_index]; /* note: last entry in array + 1 */
    11b4:	880b      	ldrh	r3, [r1, #0]
    11b6:	490d      	ldr	r1, [pc, #52]	; (11ec <EVE_start_dma_transfer+0x48>)
    11b8:	009b      	lsls	r3, r3, #2
    11ba:	185b      	adds	r3, r3, r1
				EVE_SPI->SPI.CTRLB.bit.RXEN = 0; /* switch receiver off by setting RXEN to 0 which is not enable-protected */
    11bc:	490c      	ldr	r1, [pc, #48]	; (11f0 <EVE_start_dma_transfer+0x4c>)
				dmadescriptor.SRCADDR.reg = (uint32_t) &EVE_dma_buffer[EVE_dma_buffer_index]; /* note: last entry in array + 1 */
    11be:	6053      	str	r3, [r2, #4]
				EVE_SPI->SPI.CTRLB.bit.RXEN = 0; /* switch receiver off by setting RXEN to 0 which is not enable-protected */
    11c0:	684b      	ldr	r3, [r1, #4]
    11c2:	480c      	ldr	r0, [pc, #48]	; (11f4 <EVE_start_dma_transfer+0x50>)
				EVE_cs_set();
				DMAC->CHCTRLA.bit.ENABLE = 1; /* start sending out EVE_dma_buffer ?*/
    11c4:	2502      	movs	r5, #2
				EVE_SPI->SPI.CTRLB.bit.RXEN = 0; /* switch receiver off by setting RXEN to 0 which is not enable-protected */
    11c6:	4003      	ands	r3, r0
    11c8:	604b      	str	r3, [r1, #4]
			PORT->Group[EVE_CS_PORT].OUTCLR.reg = EVE_CS;
    11ca:	2382      	movs	r3, #130	; 0x82
    11cc:	2120      	movs	r1, #32
				DMAC->CHCTRLA.bit.ENABLE = 1; /* start sending out EVE_dma_buffer ?*/
    11ce:	2040      	movs	r0, #64	; 0x40
    11d0:	4c09      	ldr	r4, [pc, #36]	; (11f8 <EVE_start_dma_transfer+0x54>)
    11d2:	05db      	lsls	r3, r3, #23
    11d4:	6159      	str	r1, [r3, #20]
    11d6:	5c23      	ldrb	r3, [r4, r0]
    11d8:	432b      	orrs	r3, r5
    11da:	5423      	strb	r3, [r4, r0]
				EVE_dma_busy = 42;
    11dc:	232a      	movs	r3, #42	; 0x2a
    11de:	5453      	strb	r3, [r2, r1]
			}
    11e0:	bd30      	pop	{r4, r5, pc}
    11e2:	46c0      	nop			; (mov r8, r8)
    11e4:	2000047c 	.word	0x2000047c
    11e8:	20000450 	.word	0x20000450
    11ec:	20000480 	.word	0x20000480
    11f0:	42000400 	.word	0x42000400
    11f4:	fffdffff 	.word	0xfffdffff
    11f8:	41006000 	.word	0x41006000

000011fc <DMAC_Handler>:

			/* executed at the end of the DMA transfer */
			void DMAC_Handler()
			{
				DMAC->CHID.reg = EVE_DMA_CHANNEL; /* we only use one channel, so this should not even change */
    11fc:	2100      	movs	r1, #0
    11fe:	223f      	movs	r2, #63	; 0x3f
    1200:	4b0a      	ldr	r3, [pc, #40]	; (122c <DMAC_Handler+0x30>)
    1202:	5499      	strb	r1, [r3, r2]
				DMAC->CHINTFLAG.reg = DMAC_CHINTFLAG_TCMPL; /* ack irq */
    1204:	320f      	adds	r2, #15
    1206:	3102      	adds	r1, #2
    1208:	5499      	strb	r1, [r3, r2]
				while(EVE_SPI->SPI.INTFLAG.bit.TXC == 0); /* wait for the SPI to be done transmitting */
    120a:	4a09      	ldr	r2, [pc, #36]	; (1230 <DMAC_Handler+0x34>)
    120c:	7e13      	ldrb	r3, [r2, #24]
    120e:	079b      	lsls	r3, r3, #30
    1210:	d5fc      	bpl.n	120c <DMAC_Handler+0x10>
				EVE_SPI->SPI.CTRLB.bit.RXEN = 1; /* switch receiver on by setting RXEN to 1 which is not enable protected */
    1212:	2380      	movs	r3, #128	; 0x80
    1214:	6851      	ldr	r1, [r2, #4]
    1216:	029b      	lsls	r3, r3, #10
    1218:	430b      	orrs	r3, r1
    121a:	6053      	str	r3, [r2, #4]
			PORT->Group[EVE_CS_PORT].OUTSET.reg = EVE_CS;
    121c:	2282      	movs	r2, #130	; 0x82
    121e:	2320      	movs	r3, #32
				EVE_cs_clear();
				EVE_dma_busy = 0;
    1220:	2100      	movs	r1, #0
    1222:	05d2      	lsls	r2, r2, #23
    1224:	6193      	str	r3, [r2, #24]
    1226:	4a03      	ldr	r2, [pc, #12]	; (1234 <DMAC_Handler+0x38>)
    1228:	54d1      	strb	r1, [r2, r3]
			}
    122a:	4770      	bx	lr
    122c:	41006000 	.word	0x41006000
    1230:	42000400 	.word	0x42000400
    1234:	20000450 	.word	0x20000450

00001238 <set_spi_speed.part.0>:

void set_spi_speed(uint8_t baudval)
{
	if(SERCOM0->SPI.CTRLA.bit.ENABLE)  /* SPI already is active, need to disable first and re-activate */
	{
		SERCOM0->SPI.CTRLA.bit.ENABLE = 0; /* disable SERCOM -> enable config */
    1238:	2102      	movs	r1, #2
    123a:	4a08      	ldr	r2, [pc, #32]	; (125c <set_spi_speed.part.0+0x24>)
    123c:	6813      	ldr	r3, [r2, #0]
    123e:	438b      	bics	r3, r1
    1240:	6013      	str	r3, [r2, #0]
		while(SERCOM0->SPI.SYNCBUSY.bit.ENABLE);
    1242:	69d3      	ldr	r3, [r2, #28]
    1244:	079b      	lsls	r3, r3, #30
    1246:	d4fc      	bmi.n	1242 <set_spi_speed.part.0+0xa>
		SERCOM0->SPI.BAUD.reg = baudval; /* 48 / (2 * (baudval + 1)) -> @48Mhz: 0 = 24MHz, 1 = 12MHz, 2 = 8MHz, 3 = 6MHz */
		SERCOM0->SPI.CTRLA.bit.ENABLE = 1; /* activate SERCOM */
    1248:	2102      	movs	r1, #2
		SERCOM0->SPI.BAUD.reg = baudval; /* 48 / (2 * (baudval + 1)) -> @48Mhz: 0 = 24MHz, 1 = 12MHz, 2 = 8MHz, 3 = 6MHz */
    124a:	7310      	strb	r0, [r2, #12]
		SERCOM0->SPI.CTRLA.bit.ENABLE = 1; /* activate SERCOM */
    124c:	6813      	ldr	r3, [r2, #0]
    124e:	430b      	orrs	r3, r1
    1250:	6013      	str	r3, [r2, #0]
		while(SERCOM0->SPI.SYNCBUSY.bit.ENABLE); /* wait for SERCOM to be ready */
    1252:	4a02      	ldr	r2, [pc, #8]	; (125c <set_spi_speed.part.0+0x24>)
    1254:	69d3      	ldr	r3, [r2, #28]
    1256:	079b      	lsls	r3, r3, #30
    1258:	d4fc      	bmi.n	1254 <set_spi_speed.part.0+0x1c>
	}
	else
	{
		SERCOM0->SPI.BAUD.reg = baudval; /* 48 / (2 * (baudval + 1)) -> @48Mhz: 0 = 24MHz, 1 = 12MHz, 2 = 8MHz, 3 = 6MHz */
	}
}
    125a:	4770      	bx	lr
    125c:	42000400 	.word	0x42000400

00001260 <SysTick_Handler>:
	system_tick = 42;
    1260:	222a      	movs	r2, #42	; 0x2a
    1262:	4b01      	ldr	r3, [pc, #4]	; (1268 <SysTick_Handler+0x8>)
    1264:	701a      	strb	r2, [r3, #0]
}
    1266:	4770      	bx	lr
    1268:	20000471 	.word	0x20000471

0000126c <init_clock>:
	NVMCTRL->CTRLB.reg = NVMCTRL_CTRLB_RWS(2);	/* set the NVM Read Wait States to 2, since the operating frequency will be 48 MHz */
    126c:	2204      	movs	r2, #4
    126e:	4b11      	ldr	r3, [pc, #68]	; (12b4 <init_clock+0x48>)
    1270:	605a      	str	r2, [r3, #4]
	OSCCTRL->XOSCCTRL.reg =
    1272:	4a11      	ldr	r2, [pc, #68]	; (12b8 <init_clock+0x4c>)
    1274:	4b11      	ldr	r3, [pc, #68]	; (12bc <init_clock+0x50>)
    1276:	8213      	strh	r3, [r2, #16]
	while(0 == OSCCTRL->STATUS.bit.XOSCRDY);
    1278:	68d3      	ldr	r3, [r2, #12]
    127a:	07db      	lsls	r3, r3, #31
    127c:	d5fc      	bpl.n	1278 <init_clock+0xc>
	OSCCTRL->DPLLCTRLB.reg = OSCCTRL_DPLLCTRLB_DIV(3) | OSCCTRL_DPLLCTRLB_REFCLK(1);
    127e:	4b10      	ldr	r3, [pc, #64]	; (12c0 <init_clock+0x54>)
	while(0 == OSCCTRL->DPLLSTATUS.bit.CLKRDY); /* wait for the pll to be ready */
    1280:	490d      	ldr	r1, [pc, #52]	; (12b8 <init_clock+0x4c>)
	OSCCTRL->DPLLCTRLB.reg = OSCCTRL_DPLLCTRLB_DIV(3) | OSCCTRL_DPLLCTRLB_REFCLK(1);
    1282:	6253      	str	r3, [r2, #36]	; 0x24
	OSCCTRL->DPLLRATIO.reg = OSCCTRL_DPLLRATIO_LDRFRAC(0x0) | OSCCTRL_DPLLRATIO_LDR(23);
    1284:	2317      	movs	r3, #23
    1286:	6213      	str	r3, [r2, #32]
	OSCCTRL->DPLLCTRLA.reg = OSCCTRL_DPLLCTRLA_RUNSTDBY | OSCCTRL_DPLLCTRLA_ENABLE;
    1288:	332b      	adds	r3, #43	; 0x2b
    128a:	7713      	strb	r3, [r2, #28]
	while(0 == OSCCTRL->DPLLSTATUS.bit.CLKRDY); /* wait for the pll to be ready */
    128c:	2230      	movs	r2, #48	; 0x30
    128e:	5c8b      	ldrb	r3, [r1, r2]
    1290:	079b      	lsls	r3, r3, #30
    1292:	d5fc      	bpl.n	128e <init_clock+0x22>
	GCLK->GENCTRL[0].reg =
    1294:	4a0b      	ldr	r2, [pc, #44]	; (12c4 <init_clock+0x58>)
    1296:	4b0c      	ldr	r3, [pc, #48]	; (12c8 <init_clock+0x5c>)
    1298:	6213      	str	r3, [r2, #32]
	while(1 == GCLK->SYNCBUSY.bit.GENCTRL0); /* wait for the synchronization between clock domains to be complete */
    129a:	6853      	ldr	r3, [r2, #4]
    129c:	075b      	lsls	r3, r3, #29
    129e:	d4fc      	bmi.n	129a <init_clock+0x2e>
	OSCCTRL->OSC48MDIV.reg = OSCCTRL_OSC48MDIV_DIV(0);	/* set 48MHz Oscillator to 48MHz output */
    12a0:	2100      	movs	r1, #0
    12a2:	4b05      	ldr	r3, [pc, #20]	; (12b8 <init_clock+0x4c>)
    12a4:	7559      	strb	r1, [r3, #21]
	GCLK->GENCTRL[1].reg =
    12a6:	4b09      	ldr	r3, [pc, #36]	; (12cc <init_clock+0x60>)
    12a8:	6253      	str	r3, [r2, #36]	; 0x24
	while(1 == GCLK->SYNCBUSY.bit.GENCTRL1); /* wait for the synchronization between clock domains to be complete */
    12aa:	4a06      	ldr	r2, [pc, #24]	; (12c4 <init_clock+0x58>)
    12ac:	6853      	ldr	r3, [r2, #4]
    12ae:	071b      	lsls	r3, r3, #28
    12b0:	d4fc      	bmi.n	12ac <init_clock+0x40>
}
    12b2:	4770      	bx	lr
    12b4:	41004000 	.word	0x41004000
    12b8:	40001000 	.word	0x40001000
    12bc:	00006b46 	.word	0x00006b46
    12c0:	00030010 	.word	0x00030010
    12c4:	40001c00 	.word	0x40001c00
    12c8:	00002307 	.word	0x00002307
    12cc:	00002306 	.word	0x00002306

000012d0 <init_spi>:


void init_spi(void)
{
	PORT->Group[0].DIRSET.reg = PORT_PA03; /* PD_TFT */
    12d0:	2382      	movs	r3, #130	; 0x82
    12d2:	2108      	movs	r1, #8
	PORT->Group[0].DIRSET.reg = PORT_PA05; /* CS_TFT */
    12d4:	2220      	movs	r2, #32
	PORT->Group[0].DIRSET.reg = PORT_PA03; /* PD_TFT */
    12d6:	05db      	lsls	r3, r3, #23
{
    12d8:	b510      	push	{r4, lr}
	PORT->Group[0].DIRSET.reg = PORT_PA03; /* PD_TFT */
    12da:	6099      	str	r1, [r3, #8]
	PORT->Group[0].DIRSET.reg = PORT_PA05; /* CS_TFT */
    12dc:	609a      	str	r2, [r3, #8]
	PORT->Group[0].OUTCLR.reg = PORT_PA03; /* PD_TFT */
    12de:	6159      	str	r1, [r3, #20]
	PORT->Group[0].OUTSET.reg = PORT_PA05; /* CS_TFT */
    12e0:	619a      	str	r2, [r3, #24]

	/* configure SERCOM0 MISO on PA04 */
	PORT->Group[0].WRCONFIG.reg =
    12e2:	4a15      	ldr	r2, [pc, #84]	; (1338 <init_spi+0x68>)
		PORT_WRCONFIG_PMUX(MUX_PA06D_SERCOM0_PAD2) |
		PORT_WRCONFIG_DRVSTR |
		PORT_WRCONFIG_PINMASK(0xc0) | /* PA06 + PA07 */
		PORT_WRCONFIG_PMUXEN;
	
	MCLK->APBCMASK.bit.SERCOM0_ = 1;
    12e4:	3906      	subs	r1, #6
	PORT->Group[0].WRCONFIG.reg =
    12e6:	629a      	str	r2, [r3, #40]	; 0x28
	PORT->Group[0].WRCONFIG.reg =
    12e8:	4a14      	ldr	r2, [pc, #80]	; (133c <init_spi+0x6c>)
    12ea:	629a      	str	r2, [r3, #40]	; 0x28
	MCLK->APBCMASK.bit.SERCOM0_ = 1;
    12ec:	4a14      	ldr	r2, [pc, #80]	; (1340 <init_spi+0x70>)
    12ee:	69d3      	ldr	r3, [r2, #28]
    12f0:	430b      	orrs	r3, r1
    12f2:	61d3      	str	r3, [r2, #28]
	GCLK->PCHCTRL[19].reg = GCLK_PCHCTRL_GEN_GCLK0 | GCLK_PCHCTRL_CHEN; /* setup SERCOM0 to use GLCK0 -> 48MHz */
    12f4:	23cc      	movs	r3, #204	; 0xcc
    12f6:	4a13      	ldr	r2, [pc, #76]	; (1344 <init_spi+0x74>)
    12f8:	313e      	adds	r1, #62	; 0x3e
    12fa:	50d1      	str	r1, [r2, r3]

	SERCOM0->SPI.CTRLA.reg = 0x00; /* disable SPI -> enable config */
    12fc:	2300      	movs	r3, #0
    12fe:	4a12      	ldr	r2, [pc, #72]	; (1348 <init_spi+0x78>)
    1300:	6013      	str	r3, [r2, #0]
	while(SERCOM0->SPI.SYNCBUSY.bit.ENABLE);
    1302:	69d3      	ldr	r3, [r2, #28]
    1304:	079b      	lsls	r3, r3, #30
    1306:	d4fc      	bmi.n	1302 <init_spi+0x32>
	SERCOM0->SPI.CTRLA.reg = SERCOM_SPI_CTRLA_MODE(3) | SERCOM_SPI_CTRLA_DOPO(1); /* MSB first, CPOL = 0, CPHA = 0, SPI frame, master mode, PAD0 = MISO, PAD2 = MOSI, PAD3 = SCK */
    1308:	4b10      	ldr	r3, [pc, #64]	; (134c <init_spi+0x7c>)
    130a:	6013      	str	r3, [r2, #0]
	if(SERCOM0->SPI.CTRLA.bit.ENABLE)  /* SPI already is active, need to disable first and re-activate */
    130c:	6813      	ldr	r3, [r2, #0]
    130e:	079b      	lsls	r3, r3, #30
    1310:	d40d      	bmi.n	132e <init_spi+0x5e>
		SERCOM0->SPI.BAUD.reg = baudval; /* 48 / (2 * (baudval + 1)) -> @48Mhz: 0 = 24MHz, 1 = 12MHz, 2 = 8MHz, 3 = 6MHz */
    1312:	2302      	movs	r3, #2
    1314:	7313      	strb	r3, [r2, #12]
	set_spi_speed(2); /* 48 / (2 * (2 + 1)) -> 48 / 6 -> 8MHZ clock from 48MHz core-clock */
	SERCOM0->SPI.CTRLB.reg = SERCOM_SPI_CTRLB_RXEN; /* receiver enabled, no hardware select, 8-bit */
    1316:	2380      	movs	r3, #128	; 0x80
	SERCOM0->SPI.CTRLA.bit.ENABLE = 1; /* activate SERCOM0 */
    1318:	2102      	movs	r1, #2
	SERCOM0->SPI.CTRLB.reg = SERCOM_SPI_CTRLB_RXEN; /* receiver enabled, no hardware select, 8-bit */
    131a:	4a0b      	ldr	r2, [pc, #44]	; (1348 <init_spi+0x78>)
    131c:	029b      	lsls	r3, r3, #10
    131e:	6053      	str	r3, [r2, #4]
	SERCOM0->SPI.CTRLA.bit.ENABLE = 1; /* activate SERCOM0 */
    1320:	6813      	ldr	r3, [r2, #0]
    1322:	430b      	orrs	r3, r1
    1324:	6013      	str	r3, [r2, #0]
	while(SERCOM0->SPI.SYNCBUSY.bit.ENABLE); /* wait for SERCOM to be ready */
    1326:	69d3      	ldr	r3, [r2, #28]
    1328:	079b      	lsls	r3, r3, #30
    132a:	d4fc      	bmi.n	1326 <init_spi+0x56>
}
    132c:	bd10      	pop	{r4, pc}
    132e:	2002      	movs	r0, #2
    1330:	4b07      	ldr	r3, [pc, #28]	; (1350 <init_spi+0x80>)
    1332:	4798      	blx	r3
    1334:	e7ef      	b.n	1316 <init_spi+0x46>
    1336:	46c0      	nop			; (mov r8, r8)
    1338:	53030010 	.word	0x53030010
    133c:	534100c0 	.word	0x534100c0
    1340:	40000800 	.word	0x40000800
    1344:	40001c00 	.word	0x40001c00
    1348:	42000400 	.word	0x42000400
    134c:	0001000c 	.word	0x0001000c
    1350:	00001239 	.word	0x00001239

00001354 <main>:
	while(1 == TC4->COUNT16.SYNCBUSY.bit.ENABLE); /* wait for TC4 to be ready */
}


int main(void)
{
    1354:	b5f8      	push	{r3, r4, r5, r6, r7, lr}
    1356:	46de      	mov	lr, fp
    1358:	4657      	mov	r7, sl
    135a:	464e      	mov	r6, r9
    135c:	4645      	mov	r5, r8
	uint8_t display_delay = 0;
	uint8_t led_delay = 0;
	
	init_clock();
    135e:	4b43      	ldr	r3, [pc, #268]	; (146c <main+0x118>)
{
    1360:	b5e0      	push	{r5, r6, r7, lr}
	init_clock();
    1362:	4798      	blx	r3
	init_spi();
    1364:	4b42      	ldr	r3, [pc, #264]	; (1470 <main+0x11c>)
    1366:	4798      	blx	r3
	MCLK->APBCMASK.bit.TC4_ = 1;
    1368:	2380      	movs	r3, #128	; 0x80
    136a:	4a42      	ldr	r2, [pc, #264]	; (1474 <main+0x120>)
    136c:	025b      	lsls	r3, r3, #9
    136e:	69d1      	ldr	r1, [r2, #28]
    1370:	430b      	orrs	r3, r1
    1372:	61d3      	str	r3, [r2, #28]
	GCLK->PCHCTRL[32].reg = GCLK_PCHCTRL_GEN_GCLK1 | GCLK_PCHCTRL_CHEN; /* setup TC4 to use GLCK1 -> 48MHz */
    1374:	2380      	movs	r3, #128	; 0x80
    1376:	2141      	movs	r1, #65	; 0x41
    1378:	4a3f      	ldr	r2, [pc, #252]	; (1478 <main+0x124>)
    137a:	005b      	lsls	r3, r3, #1
    137c:	50d1      	str	r1, [r2, r3]
	TC4->COUNT16.CTRLA.reg = TC_CTRLA_MODE_COUNT16 | TC_CTRLA_PRESCALER_DIV16;
    137e:	2280      	movs	r2, #128	; 0x80
    1380:	4b3e      	ldr	r3, [pc, #248]	; (147c <main+0x128>)
    1382:	00d2      	lsls	r2, r2, #3
    1384:	601a      	str	r2, [r3, #0]
	TC4->COUNT16.CTRLA.bit.ENABLE = 1;
    1386:	681a      	ldr	r2, [r3, #0]
    1388:	393f      	subs	r1, #63	; 0x3f
    138a:	430a      	orrs	r2, r1
    138c:	601a      	str	r2, [r3, #0]
	while(1 == TC4->COUNT16.SYNCBUSY.bit.ENABLE); /* wait for TC4 to be ready */
    138e:	691a      	ldr	r2, [r3, #16]
    1390:	0792      	lsls	r2, r2, #30
    1392:	d4fc      	bmi.n	138e <main+0x3a>
       (((priority << (8U - __NVIC_PRIO_BITS)) & (uint32_t)0xFFUL) << _BIT_SHIFT(IRQn)));
  }
  else
  {
    SCB->SHP[_SHP_IDX(IRQn)] = ((uint32_t)(SCB->SHP[_SHP_IDX(IRQn)] & ~(0xFFUL << _BIT_SHIFT(IRQn))) |
    1394:	21c0      	movs	r1, #192	; 0xc0
  if ((ticks - 1UL) > SysTick_LOAD_RELOAD_Msk)
  {
    return (1UL);                                                   /* Reload value impossible */
  }

  SysTick->LOAD  = (uint32_t)(ticks - 1UL);                         /* set reload register */
    1396:	4a3a      	ldr	r2, [pc, #232]	; (1480 <main+0x12c>)
    1398:	4b3a      	ldr	r3, [pc, #232]	; (1484 <main+0x130>)
    SCB->SHP[_SHP_IDX(IRQn)] = ((uint32_t)(SCB->SHP[_SHP_IDX(IRQn)] & ~(0xFFUL << _BIT_SHIFT(IRQn))) |
    139a:	483b      	ldr	r0, [pc, #236]	; (1488 <main+0x134>)
  SysTick->LOAD  = (uint32_t)(ticks - 1UL);                         /* set reload register */
    139c:	6053      	str	r3, [r2, #4]
    SCB->SHP[_SHP_IDX(IRQn)] = ((uint32_t)(SCB->SHP[_SHP_IDX(IRQn)] & ~(0xFFUL << _BIT_SHIFT(IRQn))) |
    139e:	6a03      	ldr	r3, [r0, #32]
    13a0:	0609      	lsls	r1, r1, #24
    13a2:	021b      	lsls	r3, r3, #8
    13a4:	0a1b      	lsrs	r3, r3, #8
    13a6:	430b      	orrs	r3, r1
    13a8:	6203      	str	r3, [r0, #32]
  NVIC_SetPriority (SysTick_IRQn, (1UL << __NVIC_PRIO_BITS) - 1UL); /* set Priority for Systick Interrupt */
  SysTick->VAL   = 0UL;                                             /* Load the SysTick Counter Value */
    13aa:	2300      	movs	r3, #0
    13ac:	6093      	str	r3, [r2, #8]
  SysTick->CTRL  = SysTick_CTRL_CLKSOURCE_Msk |
    13ae:	3307      	adds	r3, #7
    13b0:	6013      	str	r3, [r2, #0]
	init_timer();
	SysTick_Config(48000000 / 200); // configure and Enable Systick for 5 ms ticks
	
	PORT->Group[0].DIRSET.reg = PORT_PA27; /* Debug-LED */
    13b2:	2280      	movs	r2, #128	; 0x80
    13b4:	2382      	movs	r3, #130	; 0x82
    13b6:	0512      	lsls	r2, r2, #20
    13b8:	05db      	lsls	r3, r3, #23
    13ba:	609a      	str	r2, [r3, #8]
	
	TFT_init();
    13bc:	4b33      	ldr	r3, [pc, #204]	; (148c <main+0x138>)
    13be:	4798      	blx	r3
	if(SERCOM0->SPI.CTRLA.bit.ENABLE)  /* SPI already is active, need to disable first and re-activate */
    13c0:	4b33      	ldr	r3, [pc, #204]	; (1490 <main+0x13c>)
    13c2:	681a      	ldr	r2, [r3, #0]
    13c4:	0792      	lsls	r2, r2, #30
    13c6:	d44c      	bmi.n	1462 <main+0x10e>
		SERCOM0->SPI.BAUD.reg = baudval; /* 48 / (2 * (baudval + 1)) -> @48Mhz: 0 = 24MHz, 1 = 12MHz, 2 = 8MHz, 3 = 6MHz */
    13c8:	2201      	movs	r2, #1
    13ca:	731a      	strb	r2, [r3, #12]
			num_profile_b /= 3; /* 1µs */

			display_delay++;
			if(display_delay > 3)
			{
				display_delay = 0;
    13cc:	2300      	movs	r3, #0
    13ce:	4698      	mov	r8, r3
    13d0:	4b30      	ldr	r3, [pc, #192]	; (1494 <main+0x140>)
    13d2:	2700      	movs	r7, #0
    13d4:	469a      	mov	sl, r3
			system_tick = 0;
    13d6:	2300      	movs	r3, #0
    13d8:	4699      	mov	r9, r3
				PORT->Group[0].OUTTGL.reg = PORT_PA27;
    13da:	2382      	movs	r3, #130	; 0x82
    13dc:	05db      	lsls	r3, r3, #23
    13de:	469b      	mov	fp, r3
    13e0:	4e2d      	ldr	r6, [pc, #180]	; (1498 <main+0x144>)
			TC4->COUNT16.COUNT.reg = 0;
    13e2:	4c26      	ldr	r4, [pc, #152]	; (147c <main+0x128>)
		if(system_tick)
    13e4:	7833      	ldrb	r3, [r6, #0]
    13e6:	2b00      	cmp	r3, #0
    13e8:	d0fc      	beq.n	13e4 <main+0x90>
			system_tick = 0;
    13ea:	464b      	mov	r3, r9
    13ec:	7033      	strb	r3, [r6, #0]
			led_delay++;
    13ee:	4643      	mov	r3, r8
    13f0:	3301      	adds	r3, #1
    13f2:	b2db      	uxtb	r3, r3
    13f4:	4698      	mov	r8, r3
			if(led_delay > 39)
    13f6:	2b27      	cmp	r3, #39	; 0x27
    13f8:	d905      	bls.n	1406 <main+0xb2>
				PORT->Group[0].OUTTGL.reg = PORT_PA27;
    13fa:	2380      	movs	r3, #128	; 0x80
    13fc:	465a      	mov	r2, fp
    13fe:	051b      	lsls	r3, r3, #20
    1400:	61d3      	str	r3, [r2, #28]
				led_delay = 0;
    1402:	2300      	movs	r3, #0
    1404:	4698      	mov	r8, r3
			TC4->COUNT16.COUNT.reg = 0;
    1406:	464b      	mov	r3, r9
    1408:	82a3      	strh	r3, [r4, #20]
			TC4->COUNT16.CTRLBSET.reg = TC_CTRLBSET_CMD_UPDATE;
    140a:	2360      	movs	r3, #96	; 0x60
    140c:	7163      	strb	r3, [r4, #5]
			while(TC4->COUNT16.CTRLBSET.reg);
    140e:	7963      	ldrb	r3, [r4, #5]
    1410:	2b00      	cmp	r3, #0
    1412:	d1fc      	bne.n	140e <main+0xba>
			TFT_touch();
    1414:	4b21      	ldr	r3, [pc, #132]	; (149c <main+0x148>)
    1416:	4798      	blx	r3
			TC4->COUNT16.CTRLBSET.reg = TC_CTRLBSET_CMD_READSYNC;
    1418:	2380      	movs	r3, #128	; 0x80
    141a:	7163      	strb	r3, [r4, #5]
			while(TC4->COUNT16.CTRLBSET.reg);
    141c:	7965      	ldrb	r5, [r4, #5]
    141e:	b2ed      	uxtb	r5, r5
    1420:	2d00      	cmp	r5, #0
    1422:	d1fb      	bne.n	141c <main+0xc8>
			num_profile_b =	TC4->COUNT16.COUNT.reg;
    1424:	8aa0      	ldrh	r0, [r4, #20]
			num_profile_b /= 3; /* 1µs */
    1426:	2103      	movs	r1, #3
			num_profile_b =	TC4->COUNT16.COUNT.reg;
    1428:	b280      	uxth	r0, r0
			num_profile_b /= 3; /* 1µs */
    142a:	47d0      	blx	sl
			display_delay++;
    142c:	3701      	adds	r7, #1
			num_profile_b /= 3; /* 1µs */
    142e:	4b1c      	ldr	r3, [pc, #112]	; (14a0 <main+0x14c>)
			display_delay++;
    1430:	b2ff      	uxtb	r7, r7
			num_profile_b /= 3; /* 1µs */
    1432:	8018      	strh	r0, [r3, #0]
			if(display_delay > 3)
    1434:	2f03      	cmp	r7, #3
    1436:	d9d5      	bls.n	13e4 <main+0x90>

				TC4->COUNT16.COUNT.reg = 0;
				TC4->COUNT16.CTRLBSET.reg = TC_CTRLBSET_CMD_UPDATE;
    1438:	2360      	movs	r3, #96	; 0x60
				TC4->COUNT16.COUNT.reg = 0;
    143a:	82a5      	strh	r5, [r4, #20]
				TC4->COUNT16.CTRLBSET.reg = TC_CTRLBSET_CMD_UPDATE;
    143c:	7163      	strb	r3, [r4, #5]
				while(TC4->COUNT16.CTRLBSET.reg);
    143e:	7963      	ldrb	r3, [r4, #5]
    1440:	2b00      	cmp	r3, #0
    1442:	d1fc      	bne.n	143e <main+0xea>
			
				TFT_display();
    1444:	4b17      	ldr	r3, [pc, #92]	; (14a4 <main+0x150>)
    1446:	4798      	blx	r3

				TC4->COUNT16.CTRLBSET.reg = TC_CTRLBSET_CMD_READSYNC;
    1448:	2380      	movs	r3, #128	; 0x80
    144a:	7163      	strb	r3, [r4, #5]
				while(TC4->COUNT16.CTRLBSET.reg);
    144c:	7963      	ldrb	r3, [r4, #5]
    144e:	2b00      	cmp	r3, #0
    1450:	d1fc      	bne.n	144c <main+0xf8>
				num_profile_a =	TC4->COUNT16.COUNT.reg;
    1452:	8aa0      	ldrh	r0, [r4, #20]
				num_profile_a /= 3; /* 1µs */
    1454:	2103      	movs	r1, #3
				num_profile_a =	TC4->COUNT16.COUNT.reg;
    1456:	b280      	uxth	r0, r0
				num_profile_a /= 3; /* 1µs */
    1458:	47d0      	blx	sl
    145a:	4b13      	ldr	r3, [pc, #76]	; (14a8 <main+0x154>)
				display_delay = 0;
    145c:	2700      	movs	r7, #0
				num_profile_a /= 3; /* 1µs */
    145e:	8018      	strh	r0, [r3, #0]
    1460:	e7c0      	b.n	13e4 <main+0x90>
    1462:	2001      	movs	r0, #1
    1464:	4b11      	ldr	r3, [pc, #68]	; (14ac <main+0x158>)
    1466:	4798      	blx	r3
    1468:	e7b0      	b.n	13cc <main+0x78>
    146a:	46c0      	nop			; (mov r8, r8)
    146c:	0000126d 	.word	0x0000126d
    1470:	000012d1 	.word	0x000012d1
    1474:	40000800 	.word	0x40000800
    1478:	40001c00 	.word	0x40001c00
    147c:	42004000 	.word	0x42004000
    1480:	e000e010 	.word	0xe000e010
    1484:	0003a97f 	.word	0x0003a97f
    1488:	e000ed00 	.word	0xe000ed00
    148c:	00001675 	.word	0x00001675
    1490:	42000400 	.word	0x42000400
    1494:	000018dd 	.word	0x000018dd
    1498:	20000471 	.word	0x20000471
    149c:	000016dd 	.word	0x000016dd
    14a0:	2000148c 	.word	0x2000148c
    14a4:	0000172d 	.word	0x0000172d
    14a8:	20001484 	.word	0x20001484
    14ac:	00001239 	.word	0x00001239

000014b0 <touch_calibrate>:

#define LAYOUT_Y1 66


void touch_calibrate(void)
{
    14b0:	b510      	push	{r4, lr}
	EVE_memWrite32(REG_TOUCH_TRANSFORM_E, 0x0000912c);
	EVE_memWrite32(REG_TOUCH_TRANSFORM_F, 0xfffe628d);
#endif

#if defined (EVE_EVE2_50G) || defined (EVE_EVE3_50G)
	EVE_memWrite32(REG_TOUCH_TRANSFORM_A, 0x000109E4);
    14b2:	490a      	ldr	r1, [pc, #40]	; (14dc <touch_calibrate+0x2c>)
    14b4:	4c0a      	ldr	r4, [pc, #40]	; (14e0 <touch_calibrate+0x30>)
    14b6:	480b      	ldr	r0, [pc, #44]	; (14e4 <touch_calibrate+0x34>)
    14b8:	47a0      	blx	r4
	EVE_memWrite32(REG_TOUCH_TRANSFORM_B, 0x000007A6);
    14ba:	490b      	ldr	r1, [pc, #44]	; (14e8 <touch_calibrate+0x38>)
    14bc:	480b      	ldr	r0, [pc, #44]	; (14ec <touch_calibrate+0x3c>)
    14be:	47a0      	blx	r4
	EVE_memWrite32(REG_TOUCH_TRANSFORM_C, 0xFFEC1EBA);
    14c0:	490b      	ldr	r1, [pc, #44]	; (14f0 <touch_calibrate+0x40>)
    14c2:	480c      	ldr	r0, [pc, #48]	; (14f4 <touch_calibrate+0x44>)
    14c4:	47a0      	blx	r4
	EVE_memWrite32(REG_TOUCH_TRANSFORM_D, 0x0000072C);
    14c6:	490c      	ldr	r1, [pc, #48]	; (14f8 <touch_calibrate+0x48>)
    14c8:	480c      	ldr	r0, [pc, #48]	; (14fc <touch_calibrate+0x4c>)
    14ca:	47a0      	blx	r4
	EVE_memWrite32(REG_TOUCH_TRANSFORM_E, 0x0001096A);
    14cc:	490c      	ldr	r1, [pc, #48]	; (1500 <touch_calibrate+0x50>)
    14ce:	480d      	ldr	r0, [pc, #52]	; (1504 <touch_calibrate+0x54>)
    14d0:	47a0      	blx	r4
	EVE_memWrite32(REG_TOUCH_TRANSFORM_F, 0xFFF469CF);
    14d2:	490d      	ldr	r1, [pc, #52]	; (1508 <touch_calibrate+0x58>)
    14d4:	480d      	ldr	r0, [pc, #52]	; (150c <touch_calibrate+0x5c>)
    14d6:	47a0      	blx	r4
	EVE_cmd_dl(CMD_SWAP); /* make this list active */
	while (EVE_busy());

	while(1);
#endif
}
    14d8:	bd10      	pop	{r4, pc}
    14da:	46c0      	nop			; (mov r8, r8)
    14dc:	000109e4 	.word	0x000109e4
    14e0:	000003b1 	.word	0x000003b1
    14e4:	00302150 	.word	0x00302150
    14e8:	000007a6 	.word	0x000007a6
    14ec:	00302154 	.word	0x00302154
    14f0:	ffec1eba 	.word	0xffec1eba
    14f4:	00302158 	.word	0x00302158
    14f8:	0000072c 	.word	0x0000072c
    14fc:	0030215c 	.word	0x0030215c
    1500:	0001096a 	.word	0x0001096a
    1504:	00302160 	.word	0x00302160
    1508:	fff469cf 	.word	0xfff469cf
    150c:	00302164 	.word	0x00302164

00001510 <initStaticBackground>:


void initStaticBackground()
{
    1510:	b570      	push	{r4, r5, r6, lr}
	EVE_cmd_dl(CMD_DLSTART); /* Start the display list */
    1512:	483e      	ldr	r0, [pc, #248]	; (160c <initStaticBackground+0xfc>)
{
    1514:	b082      	sub	sp, #8
	EVE_cmd_dl(CMD_DLSTART); /* Start the display list */
    1516:	4c3e      	ldr	r4, [pc, #248]	; (1610 <initStaticBackground+0x100>)
    1518:	47a0      	blx	r4

	EVE_cmd_dl(TAG(0)); /* do not use the following objects for touch-detection */
    151a:	20c0      	movs	r0, #192	; 0xc0
    151c:	0480      	lsls	r0, r0, #18
    151e:	47a0      	blx	r4

	EVE_cmd_bgcolor(0x00c0c0c0); /* light grey */
    1520:	4b3c      	ldr	r3, [pc, #240]	; (1614 <initStaticBackground+0x104>)
    1522:	483d      	ldr	r0, [pc, #244]	; (1618 <initStaticBackground+0x108>)
    1524:	4798      	blx	r3

	EVE_cmd_dl(VERTEX_FORMAT(0)); /* reduce precision for VERTEX2F to 1 pixel instead of 1/16 pixel default */
    1526:	209c      	movs	r0, #156	; 0x9c
    1528:	0580      	lsls	r0, r0, #22
    152a:	47a0      	blx	r4

	/* draw a rectangle on top */
	EVE_cmd_dl(DL_BEGIN | EVE_RECTS);
    152c:	483b      	ldr	r0, [pc, #236]	; (161c <initStaticBackground+0x10c>)
    152e:	47a0      	blx	r4
	EVE_cmd_dl(LINE_WIDTH(1*16)); /* size is in 1/16 pixel */
    1530:	483b      	ldr	r0, [pc, #236]	; (1620 <initStaticBackground+0x110>)
    1532:	47a0      	blx	r4

	EVE_color_rgb(BLUE_1);
    1534:	4d3b      	ldr	r5, [pc, #236]	; (1624 <initStaticBackground+0x114>)
    1536:	483c      	ldr	r0, [pc, #240]	; (1628 <initStaticBackground+0x118>)
    1538:	47a8      	blx	r5
	EVE_cmd_dl(VERTEX2F(0,0));
    153a:	2080      	movs	r0, #128	; 0x80
    153c:	05c0      	lsls	r0, r0, #23
    153e:	47a0      	blx	r4
	EVE_cmd_dl(VERTEX2F(EVE_HSIZE,LAYOUT_Y1-2));
    1540:	483a      	ldr	r0, [pc, #232]	; (162c <initStaticBackground+0x11c>)
    1542:	47a0      	blx	r4
	EVE_cmd_dl(DL_END);
    1544:	2084      	movs	r0, #132	; 0x84
    1546:	0580      	lsls	r0, r0, #22
    1548:	47a0      	blx	r4

	/* display the logo */
	EVE_color_rgb(WHITE);
    154a:	4839      	ldr	r0, [pc, #228]	; (1630 <initStaticBackground+0x120>)
    154c:	47a8      	blx	r5
	EVE_cmd_dl(DL_BEGIN | EVE_BITMAPS);
    154e:	4839      	ldr	r0, [pc, #228]	; (1634 <initStaticBackground+0x124>)
    1550:	47a0      	blx	r4
	EVE_cmd_setbitmap(MEM_LOGO, EVE_ARGB1555, 56, 56);
    1552:	20f8      	movs	r0, #248	; 0xf8
    1554:	2338      	movs	r3, #56	; 0x38
    1556:	2238      	movs	r2, #56	; 0x38
    1558:	2100      	movs	r1, #0
    155a:	0300      	lsls	r0, r0, #12
    155c:	4e36      	ldr	r6, [pc, #216]	; (1638 <initStaticBackground+0x128>)
    155e:	47b0      	blx	r6
	EVE_cmd_dl(VERTEX2F(EVE_HSIZE - 58, 5));
    1560:	4836      	ldr	r0, [pc, #216]	; (163c <initStaticBackground+0x12c>)
    1562:	47a0      	blx	r4
	EVE_cmd_dl(DL_END);
    1564:	2084      	movs	r0, #132	; 0x84
    1566:	0580      	lsls	r0, r0, #22
    1568:	47a0      	blx	r4

	/* draw a black line to separate things */
	EVE_color_rgb(BLACK);
    156a:	2000      	movs	r0, #0
    156c:	47a8      	blx	r5
	EVE_cmd_dl(DL_BEGIN | EVE_LINES);
    156e:	4834      	ldr	r0, [pc, #208]	; (1640 <initStaticBackground+0x130>)
    1570:	47a0      	blx	r4
	EVE_cmd_dl(VERTEX2F(0,LAYOUT_Y1-2));
    1572:	4834      	ldr	r0, [pc, #208]	; (1644 <initStaticBackground+0x134>)
    1574:	47a0      	blx	r4
	EVE_cmd_dl(VERTEX2F(EVE_HSIZE,LAYOUT_Y1-2));
    1576:	482d      	ldr	r0, [pc, #180]	; (162c <initStaticBackground+0x11c>)
    1578:	47a0      	blx	r4
	EVE_cmd_dl(DL_END);
    157a:	2084      	movs	r0, #132	; 0x84
    157c:	0580      	lsls	r0, r0, #22
    157e:	47a0      	blx	r4

	/* add the static text to the list */
#if defined (EVE_DMA)
	EVE_cmd_text(10, EVE_VSIZE - 65, 26, 0, "Bytes:");
    1580:	21a0      	movs	r1, #160	; 0xa0
    1582:	4b31      	ldr	r3, [pc, #196]	; (1648 <initStaticBackground+0x138>)
    1584:	4c31      	ldr	r4, [pc, #196]	; (164c <initStaticBackground+0x13c>)
    1586:	9300      	str	r3, [sp, #0]
    1588:	221a      	movs	r2, #26
    158a:	2300      	movs	r3, #0
    158c:	31ff      	adds	r1, #255	; 0xff
    158e:	200a      	movs	r0, #10
    1590:	47a0      	blx	r4
#endif
	EVE_cmd_text(10, EVE_VSIZE - 50, 26, 0, "DL-size:");
    1592:	21d7      	movs	r1, #215	; 0xd7
    1594:	4b2e      	ldr	r3, [pc, #184]	; (1650 <initStaticBackground+0x140>)
    1596:	221a      	movs	r2, #26
    1598:	9300      	str	r3, [sp, #0]
    159a:	0049      	lsls	r1, r1, #1
    159c:	2300      	movs	r3, #0
    159e:	200a      	movs	r0, #10
    15a0:	47a0      	blx	r4
	EVE_cmd_text(10, EVE_VSIZE - 35, 26, 0, "Time1:");
    15a2:	21be      	movs	r1, #190	; 0xbe
    15a4:	4b2b      	ldr	r3, [pc, #172]	; (1654 <initStaticBackground+0x144>)
    15a6:	221a      	movs	r2, #26
    15a8:	9300      	str	r3, [sp, #0]
    15aa:	31ff      	adds	r1, #255	; 0xff
    15ac:	2300      	movs	r3, #0
    15ae:	200a      	movs	r0, #10
    15b0:	47a0      	blx	r4
	EVE_cmd_text(10, EVE_VSIZE - 20, 26, 0, "Time2:");
    15b2:	21e6      	movs	r1, #230	; 0xe6
    15b4:	4b28      	ldr	r3, [pc, #160]	; (1658 <initStaticBackground+0x148>)
    15b6:	221a      	movs	r2, #26
    15b8:	9300      	str	r3, [sp, #0]
    15ba:	0049      	lsls	r1, r1, #1
    15bc:	2300      	movs	r3, #0
    15be:	200a      	movs	r0, #10
    15c0:	47a0      	blx	r4

	EVE_cmd_text(125, EVE_VSIZE - 35, 26, 0, "us");
    15c2:	21be      	movs	r1, #190	; 0xbe
    15c4:	4d25      	ldr	r5, [pc, #148]	; (165c <initStaticBackground+0x14c>)
    15c6:	2300      	movs	r3, #0
    15c8:	221a      	movs	r2, #26
    15ca:	31ff      	adds	r1, #255	; 0xff
    15cc:	207d      	movs	r0, #125	; 0x7d
    15ce:	9500      	str	r5, [sp, #0]
    15d0:	47a0      	blx	r4
	EVE_cmd_text(125, EVE_VSIZE - 20, 26, 0, "us");
    15d2:	21e6      	movs	r1, #230	; 0xe6
    15d4:	9500      	str	r5, [sp, #0]
    15d6:	2300      	movs	r3, #0
    15d8:	221a      	movs	r2, #26
    15da:	0049      	lsls	r1, r1, #1
    15dc:	207d      	movs	r0, #125	; 0x7d
    15de:	47a0      	blx	r4
    15e0:	4c1f      	ldr	r4, [pc, #124]	; (1660 <initStaticBackground+0x150>)

	while (EVE_busy());
    15e2:	47a0      	blx	r4
    15e4:	2800      	cmp	r0, #0
    15e6:	d1fc      	bne.n	15e2 <initStaticBackground+0xd2>

	num_dl_static = EVE_memRead16(REG_CMD_DL);
    15e8:	4b1e      	ldr	r3, [pc, #120]	; (1664 <initStaticBackground+0x154>)
    15ea:	481f      	ldr	r0, [pc, #124]	; (1668 <initStaticBackground+0x158>)
    15ec:	4798      	blx	r3
    15ee:	4b1f      	ldr	r3, [pc, #124]	; (166c <initStaticBackground+0x15c>)
    15f0:	0002      	movs	r2, r0
    15f2:	6018      	str	r0, [r3, #0]

	EVE_cmd_memcpy(MEM_DL_STATIC, EVE_RAM_DL, num_dl_static);
    15f4:	21c0      	movs	r1, #192	; 0xc0
    15f6:	20ff      	movs	r0, #255	; 0xff
    15f8:	0389      	lsls	r1, r1, #14
    15fa:	0300      	lsls	r0, r0, #12
    15fc:	4b1c      	ldr	r3, [pc, #112]	; (1670 <initStaticBackground+0x160>)
    15fe:	4798      	blx	r3
	while (EVE_busy());
    1600:	47a0      	blx	r4
    1602:	2800      	cmp	r0, #0
    1604:	d1fc      	bne.n	1600 <initStaticBackground+0xf0>
}
    1606:	b002      	add	sp, #8
    1608:	bd70      	pop	{r4, r5, r6, pc}
    160a:	46c0      	nop			; (mov r8, r8)
    160c:	ffffff00 	.word	0xffffff00
    1610:	00000cf1 	.word	0x00000cf1
    1614:	00000d6d 	.word	0x00000d6d
    1618:	00c0c0c0 	.word	0x00c0c0c0
    161c:	1f000009 	.word	0x1f000009
    1620:	0e000010 	.word	0x0e000010
    1624:	000010cd 	.word	0x000010cd
    1628:	005dade2 	.word	0x005dade2
    162c:	41900040 	.word	0x41900040
    1630:	00ffffff 	.word	0x00ffffff
    1634:	1f000001 	.word	0x1f000001
    1638:	00000f25 	.word	0x00000f25
    163c:	41730005 	.word	0x41730005
    1640:	1f000003 	.word	0x1f000003
    1644:	40000040 	.word	0x40000040
    1648:	00002038 	.word	0x00002038
    164c:	0000106d 	.word	0x0000106d
    1650:	00002040 	.word	0x00002040
    1654:	0000204c 	.word	0x0000204c
    1658:	00002054 	.word	0x00002054
    165c:	0000205c 	.word	0x0000205c
    1660:	000004b9 	.word	0x000004b9
    1664:	00000251 	.word	0x00000251
    1668:	00302100 	.word	0x00302100
    166c:	20001488 	.word	0x20001488
    1670:	0000092d 	.word	0x0000092d

00001674 <TFT_init>:


void TFT_init(void)
{
    1674:	b510      	push	{r4, lr}
	if(EVE_init() != 0)
    1676:	4b0e      	ldr	r3, [pc, #56]	; (16b0 <TFT_init+0x3c>)
    1678:	4798      	blx	r3
    167a:	2800      	cmp	r0, #0
    167c:	d017      	beq.n	16ae <TFT_init+0x3a>
	{
		tft_active = 1;
    167e:	2201      	movs	r2, #1
    1680:	4b0c      	ldr	r3, [pc, #48]	; (16b4 <TFT_init+0x40>)

		EVE_memWrite8(REG_PWM_DUTY, 0x30);	/* setup backlight, range is from 0 = off to 0x80 = max */
    1682:	2130      	movs	r1, #48	; 0x30
		tft_active = 1;
    1684:	701a      	strb	r2, [r3, #0]
		EVE_memWrite8(REG_PWM_DUTY, 0x30);	/* setup backlight, range is from 0 = off to 0x80 = max */
    1686:	480c      	ldr	r0, [pc, #48]	; (16b8 <TFT_init+0x44>)
    1688:	4b0c      	ldr	r3, [pc, #48]	; (16bc <TFT_init+0x48>)
    168a:	4798      	blx	r3

		touch_calibrate();
    168c:	4b0c      	ldr	r3, [pc, #48]	; (16c0 <TFT_init+0x4c>)
    168e:	4798      	blx	r3

		EVE_cmd_inflate(MEM_LOGO, logo, sizeof(logo)); /* load logo into gfx-memory and de-compress it */
    1690:	20f8      	movs	r0, #248	; 0xf8
    1692:	22ef      	movs	r2, #239	; 0xef
    1694:	490b      	ldr	r1, [pc, #44]	; (16c4 <TFT_init+0x50>)
    1696:	0300      	lsls	r0, r0, #12
    1698:	4b0b      	ldr	r3, [pc, #44]	; (16c8 <TFT_init+0x54>)
    169a:	4798      	blx	r3
		EVE_cmd_loadimage(MEM_PIC1, EVE_OPT_NODL, pic, sizeof(pic));
    169c:	20fa      	movs	r0, #250	; 0xfa
    169e:	4b0b      	ldr	r3, [pc, #44]	; (16cc <TFT_init+0x58>)
    16a0:	4a0b      	ldr	r2, [pc, #44]	; (16d0 <TFT_init+0x5c>)
    16a2:	2102      	movs	r1, #2
    16a4:	0300      	lsls	r0, r0, #12
    16a6:	4c0b      	ldr	r4, [pc, #44]	; (16d4 <TFT_init+0x60>)
    16a8:	47a0      	blx	r4

		initStaticBackground();
    16aa:	4b0b      	ldr	r3, [pc, #44]	; (16d8 <TFT_init+0x64>)
    16ac:	4798      	blx	r3
	}
}
    16ae:	bd10      	pop	{r4, pc}
    16b0:	000005cd 	.word	0x000005cd
    16b4:	20000474 	.word	0x20000474
    16b8:	003020d4 	.word	0x003020d4
    16bc:	000002d9 	.word	0x000002d9
    16c0:	000014b1 	.word	0x000014b1
    16c4:	00002f6c 	.word	0x00002f6c
    16c8:	00000afd 	.word	0x00000afd
    16cc:	00000f04 	.word	0x00000f04
    16d0:	00002068 	.word	0x00002068
    16d4:	00000a39 	.word	0x00000a39
    16d8:	00001511 	.word	0x00001511

000016dc <TFT_touch>:

uint16_t toggle_state = 0;

/* check for touch events and setup vars for TFT_display() */
void TFT_touch(void)
{
    16dc:	b510      	push	{r4, lr}
	uint8_t tag;
	static uint8_t toggle_lock = 0;
	
	if(EVE_busy()) /* is EVE still processing the last display list? */
    16de:	4b0f      	ldr	r3, [pc, #60]	; (171c <TFT_touch+0x40>)
    16e0:	4798      	blx	r3
    16e2:	2800      	cmp	r0, #0
    16e4:	d000      	beq.n	16e8 <TFT_touch+0xc>
					toggle_state = 0;
				}
			}
			break;
	}
}
    16e6:	bd10      	pop	{r4, pc}
	tag = EVE_memRead8(REG_TOUCH_TAG); /* read the value for the first touch point */
    16e8:	480d      	ldr	r0, [pc, #52]	; (1720 <TFT_touch+0x44>)
    16ea:	4b0e      	ldr	r3, [pc, #56]	; (1724 <TFT_touch+0x48>)
    16ec:	4798      	blx	r3
	switch(tag)
    16ee:	2800      	cmp	r0, #0
    16f0:	d00c      	beq.n	170c <TFT_touch+0x30>
    16f2:	280a      	cmp	r0, #10
    16f4:	d1f7      	bne.n	16e6 <TFT_touch+0xa>
			if(toggle_lock == 0)
    16f6:	4b0c      	ldr	r3, [pc, #48]	; (1728 <TFT_touch+0x4c>)
    16f8:	785a      	ldrb	r2, [r3, #1]
    16fa:	2a00      	cmp	r2, #0
    16fc:	d1f3      	bne.n	16e6 <TFT_touch+0xa>
				toggle_lock = 42;
    16fe:	212a      	movs	r1, #42	; 0x2a
    1700:	7059      	strb	r1, [r3, #1]
				if(toggle_state == 0)
    1702:	8859      	ldrh	r1, [r3, #2]
    1704:	2900      	cmp	r1, #0
    1706:	d004      	beq.n	1712 <TFT_touch+0x36>
					toggle_state = 0;
    1708:	805a      	strh	r2, [r3, #2]
    170a:	e7ec      	b.n	16e6 <TFT_touch+0xa>
			toggle_lock = 0;
    170c:	4b06      	ldr	r3, [pc, #24]	; (1728 <TFT_touch+0x4c>)
    170e:	7058      	strb	r0, [r3, #1]
			break;
    1710:	e7e9      	b.n	16e6 <TFT_touch+0xa>
					toggle_state = EVE_OPT_FLAT;
    1712:	3201      	adds	r2, #1
    1714:	32ff      	adds	r2, #255	; 0xff
    1716:	805a      	strh	r2, [r3, #2]
    1718:	e7e5      	b.n	16e6 <TFT_touch+0xa>
    171a:	46c0      	nop			; (mov r8, r8)
    171c:	000004b9 	.word	0x000004b9
    1720:	0030212c 	.word	0x0030212c
    1724:	000001e1 	.word	0x000001e1
    1728:	20000474 	.word	0x20000474

0000172c <TFT_display>:

/*
	dynamic portion of display-handling, meant to be called every 20ms or more
*/
void TFT_display(void)
{
    172c:	b5f0      	push	{r4, r5, r6, r7, lr}
    172e:	46d6      	mov	lr, sl
    1730:	464f      	mov	r7, r9
    1732:	4646      	mov	r6, r8
    1734:	b5c0      	push	{r6, r7, lr}
	static int32_t rotate = 0;
	uint16_t display_list_size = 0;

	if(tft_active != 0)
    1736:	4d4b      	ldr	r5, [pc, #300]	; (1864 <TFT_display+0x138>)
{
    1738:	b084      	sub	sp, #16
	if(tft_active != 0)
    173a:	782b      	ldrb	r3, [r5, #0]
    173c:	2b00      	cmp	r3, #0
    173e:	d105      	bne.n	174c <TFT_display+0x20>
		EVE_cmd_dl_burst(DL_DISPLAY); /* instruct the graphics processor to show the list */
		EVE_cmd_dl_burst(CMD_SWAP); /* make this list active */

		EVE_end_cmd_burst(); /* stop writing to the cmd-fifo, the cmd-FIFO will be executed automatically after this or when DMA is done */
	}
}
    1740:	b004      	add	sp, #16
    1742:	bc1c      	pop	{r2, r3, r4}
    1744:	4690      	mov	r8, r2
    1746:	4699      	mov	r9, r3
    1748:	46a2      	mov	sl, r4
    174a:	bdf0      	pop	{r4, r5, r6, r7, pc}
			cmd_fifo_size = EVE_dma_buffer_index*4; /* without DMA there is no way to tell how many bytes are written to the cmd-fifo */
    174c:	4b46      	ldr	r3, [pc, #280]	; (1868 <TFT_display+0x13c>)
		display_list_size = EVE_memRead16(REG_CMD_DL);
    174e:	4847      	ldr	r0, [pc, #284]	; (186c <TFT_display+0x140>)
			cmd_fifo_size = EVE_dma_buffer_index*4; /* without DMA there is no way to tell how many bytes are written to the cmd-fifo */
    1750:	881e      	ldrh	r6, [r3, #0]
    1752:	00b6      	lsls	r6, r6, #2
    1754:	b2b3      	uxth	r3, r6
    1756:	469a      	mov	sl, r3
		display_list_size = EVE_memRead16(REG_CMD_DL);
    1758:	4b45      	ldr	r3, [pc, #276]	; (1870 <TFT_display+0x144>)
    175a:	4798      	blx	r3
		EVE_start_cmd_burst(); /* start writing to the cmd-fifo as one stream of bytes, only sending the address once */
    175c:	4b45      	ldr	r3, [pc, #276]	; (1874 <TFT_display+0x148>)
		display_list_size = EVE_memRead16(REG_CMD_DL);
    175e:	4681      	mov	r9, r0
		EVE_start_cmd_burst(); /* start writing to the cmd-fifo as one stream of bytes, only sending the address once */
    1760:	4798      	blx	r3
		EVE_cmd_dl_burst(CMD_DLSTART); /* start the display list */
    1762:	4c45      	ldr	r4, [pc, #276]	; (1878 <TFT_display+0x14c>)
    1764:	4845      	ldr	r0, [pc, #276]	; (187c <TFT_display+0x150>)
    1766:	47a0      	blx	r4
		EVE_cmd_dl_burst(DL_CLEAR_RGB | WHITE); /* set the default clear color to white */
    1768:	4845      	ldr	r0, [pc, #276]	; (1880 <TFT_display+0x154>)
    176a:	47a0      	blx	r4
		EVE_cmd_dl_burst(DL_CLEAR | CLR_COL | CLR_STN | CLR_TAG); /* clear the screen - this and the previous prevent artifacts between lists, Attributes are the color, stencil and tag buffers */
    176c:	4845      	ldr	r0, [pc, #276]	; (1884 <TFT_display+0x158>)
    176e:	47a0      	blx	r4
		EVE_cmd_dl_burst(TAG(0));
    1770:	20c0      	movs	r0, #192	; 0xc0
    1772:	0480      	lsls	r0, r0, #18
    1774:	47a0      	blx	r4
		EVE_cmd_append_burst(MEM_DL_STATIC, num_dl_static); /* insert static part of display-list from copy in gfx-mem */
    1776:	20ff      	movs	r0, #255	; 0xff
    1778:	4b43      	ldr	r3, [pc, #268]	; (1888 <TFT_display+0x15c>)
    177a:	0300      	lsls	r0, r0, #12
    177c:	6819      	ldr	r1, [r3, #0]
    177e:	4b43      	ldr	r3, [pc, #268]	; (188c <TFT_display+0x160>)
    1780:	4798      	blx	r3
		EVE_color_rgb_burst(WHITE);
    1782:	4843      	ldr	r0, [pc, #268]	; (1890 <TFT_display+0x164>)
    1784:	4f43      	ldr	r7, [pc, #268]	; (1894 <TFT_display+0x168>)
    1786:	47b8      	blx	r7
		EVE_cmd_fgcolor_burst(0x00c0c0c0); /* some grey */
    1788:	4b43      	ldr	r3, [pc, #268]	; (1898 <TFT_display+0x16c>)
    178a:	4844      	ldr	r0, [pc, #272]	; (189c <TFT_display+0x170>)
    178c:	4798      	blx	r3
		EVE_cmd_dl_burst(TAG(10)); /* assign tag-value '10' to the button that follows */
    178e:	4844      	ldr	r0, [pc, #272]	; (18a0 <TFT_display+0x174>)
    1790:	47a0      	blx	r4
		EVE_cmd_button_burst(20,20,80,30, 28, toggle_state,"Touch!");
    1792:	4b44      	ldr	r3, [pc, #272]	; (18a4 <TFT_display+0x178>)
    1794:	2250      	movs	r2, #80	; 0x50
    1796:	9302      	str	r3, [sp, #8]
    1798:	886b      	ldrh	r3, [r5, #2]
    179a:	2114      	movs	r1, #20
    179c:	9301      	str	r3, [sp, #4]
    179e:	231c      	movs	r3, #28
    17a0:	2014      	movs	r0, #20
    17a2:	9300      	str	r3, [sp, #0]
    17a4:	4e40      	ldr	r6, [pc, #256]	; (18a8 <TFT_display+0x17c>)
    17a6:	3302      	adds	r3, #2
    17a8:	47b0      	blx	r6
		EVE_cmd_dl_burst(TAG(0)); /* no touch */
    17aa:	20c0      	movs	r0, #192	; 0xc0
    17ac:	0480      	lsls	r0, r0, #18
    17ae:	47a0      	blx	r4
		EVE_cmd_setbitmap_burst(MEM_PIC1, EVE_RGB565, 100, 100);
    17b0:	20fa      	movs	r0, #250	; 0xfa
    17b2:	2264      	movs	r2, #100	; 0x64
    17b4:	2364      	movs	r3, #100	; 0x64
    17b6:	2107      	movs	r1, #7
    17b8:	0300      	lsls	r0, r0, #12
    17ba:	4e3c      	ldr	r6, [pc, #240]	; (18ac <TFT_display+0x180>)
    17bc:	47b0      	blx	r6
		EVE_cmd_dl_burst(CMD_LOADIDENTITY);
    17be:	20da      	movs	r0, #218	; 0xda
    17c0:	4240      	negs	r0, r0
    17c2:	47a0      	blx	r4
		EVE_cmd_translate_burst(65536 * 70, 65536 * 50); /* shift off-center */
    17c4:	21c8      	movs	r1, #200	; 0xc8
    17c6:	208c      	movs	r0, #140	; 0x8c
    17c8:	4b39      	ldr	r3, [pc, #228]	; (18b0 <TFT_display+0x184>)
    17ca:	0389      	lsls	r1, r1, #14
    17cc:	03c0      	lsls	r0, r0, #15
    17ce:	4698      	mov	r8, r3
    17d0:	4798      	blx	r3
		EVE_cmd_rotate_burst(rotate);
    17d2:	4b38      	ldr	r3, [pc, #224]	; (18b4 <TFT_display+0x188>)
    17d4:	6868      	ldr	r0, [r5, #4]
    17d6:	4798      	blx	r3
		EVE_cmd_translate_burst(65536 * -70, 65536 * -50); /* shift back */
    17d8:	4937      	ldr	r1, [pc, #220]	; (18b8 <TFT_display+0x18c>)
    17da:	4838      	ldr	r0, [pc, #224]	; (18bc <TFT_display+0x190>)
    17dc:	47c0      	blx	r8
		EVE_cmd_dl_burst(CMD_SETMATRIX);
    17de:	20d6      	movs	r0, #214	; 0xd6
    17e0:	4240      	negs	r0, r0
    17e2:	47a0      	blx	r4
		if(toggle_state != 0)
    17e4:	886b      	ldrh	r3, [r5, #2]
    17e6:	2b00      	cmp	r3, #0
    17e8:	d003      	beq.n	17f2 <TFT_display+0xc6>
			rotate += 256;
    17ea:	686b      	ldr	r3, [r5, #4]
    17ec:	3301      	adds	r3, #1
    17ee:	33ff      	adds	r3, #255	; 0xff
    17f0:	606b      	str	r3, [r5, #4]
		EVE_cmd_dl_burst(DL_BEGIN | EVE_BITMAPS);
    17f2:	4833      	ldr	r0, [pc, #204]	; (18c0 <TFT_display+0x194>)
    17f4:	47a0      	blx	r4
		EVE_cmd_dl_burst(VERTEX2F(EVE_HSIZE - 100, (LAYOUT_Y1)));
    17f6:	4833      	ldr	r0, [pc, #204]	; (18c4 <TFT_display+0x198>)
    17f8:	47a0      	blx	r4
		EVE_cmd_dl_burst(DL_END);
    17fa:	2084      	movs	r0, #132	; 0x84
    17fc:	0580      	lsls	r0, r0, #22
    17fe:	47a0      	blx	r4
		EVE_cmd_dl_burst(RESTORE_CONTEXT()); /* reset the transformation matrix to default values */
    1800:	208c      	movs	r0, #140	; 0x8c
    1802:	0580      	lsls	r0, r0, #22
    1804:	47a0      	blx	r4
		EVE_color_rgb_burst(BLACK);
    1806:	2000      	movs	r0, #0
    1808:	47b8      	blx	r7
		EVE_cmd_number_burst(120, EVE_VSIZE - 65, 26, EVE_OPT_RIGHTX, cmd_fifo_size); /* number of bytes written to the cmd-fifo */
    180a:	4653      	mov	r3, sl
    180c:	21a0      	movs	r1, #160	; 0xa0
    180e:	9300      	str	r3, [sp, #0]
    1810:	2380      	movs	r3, #128	; 0x80
    1812:	4d2d      	ldr	r5, [pc, #180]	; (18c8 <TFT_display+0x19c>)
    1814:	011b      	lsls	r3, r3, #4
    1816:	221a      	movs	r2, #26
    1818:	31ff      	adds	r1, #255	; 0xff
    181a:	2078      	movs	r0, #120	; 0x78
    181c:	47a8      	blx	r5
		EVE_cmd_number_burst(120, EVE_VSIZE - 50, 26, EVE_OPT_RIGHTX, display_list_size); /* number of bytes written to the display-list by the command co-pro */
    181e:	464b      	mov	r3, r9
    1820:	21d7      	movs	r1, #215	; 0xd7
    1822:	9300      	str	r3, [sp, #0]
    1824:	2380      	movs	r3, #128	; 0x80
    1826:	221a      	movs	r2, #26
    1828:	011b      	lsls	r3, r3, #4
    182a:	0049      	lsls	r1, r1, #1
    182c:	2078      	movs	r0, #120	; 0x78
    182e:	47a8      	blx	r5
		EVE_cmd_number_burst(120, EVE_VSIZE - 35, 26, EVE_OPT_RIGHTX|5, num_profile_a); /* duration in ï¿½s of TFT_loop() for the touch-event part */
    1830:	21be      	movs	r1, #190	; 0xbe
    1832:	4b26      	ldr	r3, [pc, #152]	; (18cc <TFT_display+0x1a0>)
    1834:	221a      	movs	r2, #26
    1836:	881b      	ldrh	r3, [r3, #0]
    1838:	31ff      	adds	r1, #255	; 0xff
    183a:	9300      	str	r3, [sp, #0]
    183c:	2078      	movs	r0, #120	; 0x78
    183e:	4b24      	ldr	r3, [pc, #144]	; (18d0 <TFT_display+0x1a4>)
    1840:	47a8      	blx	r5
		EVE_cmd_number_burst(120, EVE_VSIZE - 20, 26, EVE_OPT_RIGHTX|5, num_profile_b); /* duration in ï¿½s of TFT_loop() for the display-list part */
    1842:	21e6      	movs	r1, #230	; 0xe6
    1844:	4b23      	ldr	r3, [pc, #140]	; (18d4 <TFT_display+0x1a8>)
    1846:	221a      	movs	r2, #26
    1848:	881b      	ldrh	r3, [r3, #0]
    184a:	0049      	lsls	r1, r1, #1
    184c:	9300      	str	r3, [sp, #0]
    184e:	2078      	movs	r0, #120	; 0x78
    1850:	4b1f      	ldr	r3, [pc, #124]	; (18d0 <TFT_display+0x1a4>)
    1852:	47a8      	blx	r5
		EVE_cmd_dl_burst(DL_DISPLAY); /* instruct the graphics processor to show the list */
    1854:	2000      	movs	r0, #0
    1856:	47a0      	blx	r4
		EVE_cmd_dl_burst(CMD_SWAP); /* make this list active */
    1858:	20ff      	movs	r0, #255	; 0xff
    185a:	4240      	negs	r0, r0
    185c:	47a0      	blx	r4
		EVE_end_cmd_burst(); /* stop writing to the cmd-fifo, the cmd-FIFO will be executed automatically after this or when DMA is done */
    185e:	4b1e      	ldr	r3, [pc, #120]	; (18d8 <TFT_display+0x1ac>)
    1860:	4798      	blx	r3
}
    1862:	e76d      	b.n	1740 <TFT_display+0x14>
    1864:	20000474 	.word	0x20000474
    1868:	2000047c 	.word	0x2000047c
    186c:	00302100 	.word	0x00302100
    1870:	00000251 	.word	0x00000251
    1874:	0000084d 	.word	0x0000084d
    1878:	00000d11 	.word	0x00000d11
    187c:	ffffff00 	.word	0xffffff00
    1880:	02ffffff 	.word	0x02ffffff
    1884:	26000007 	.word	0x26000007
    1888:	20001488 	.word	0x20001488
    188c:	00000d2d 	.word	0x00000d2d
    1890:	00ffffff 	.word	0x00ffffff
    1894:	000010f5 	.word	0x000010f5
    1898:	00000e6d 	.word	0x00000e6d
    189c:	00c0c0c0 	.word	0x00c0c0c0
    18a0:	0300000a 	.word	0x0300000a
    18a4:	00002060 	.word	0x00002060
    18a8:	00000de1 	.word	0x00000de1
    18ac:	0000101d 	.word	0x0000101d
    18b0:	0000108d 	.word	0x0000108d
    18b4:	00000ef5 	.word	0x00000ef5
    18b8:	ffce0000 	.word	0xffce0000
    18bc:	ffba0000 	.word	0xffba0000
    18c0:	1f000001 	.word	0x1f000001
    18c4:	415e0042 	.word	0x415e0042
    18c8:	00000e9d 	.word	0x00000e9d
    18cc:	20001484 	.word	0x20001484
    18d0:	00000805 	.word	0x00000805
    18d4:	2000148c 	.word	0x2000148c
    18d8:	00000891 	.word	0x00000891

000018dc <__udivsi3>:
    18dc:	2200      	movs	r2, #0
    18de:	0843      	lsrs	r3, r0, #1
    18e0:	428b      	cmp	r3, r1
    18e2:	d374      	bcc.n	19ce <__udivsi3+0xf2>
    18e4:	0903      	lsrs	r3, r0, #4
    18e6:	428b      	cmp	r3, r1
    18e8:	d35f      	bcc.n	19aa <__udivsi3+0xce>
    18ea:	0a03      	lsrs	r3, r0, #8
    18ec:	428b      	cmp	r3, r1
    18ee:	d344      	bcc.n	197a <__udivsi3+0x9e>
    18f0:	0b03      	lsrs	r3, r0, #12
    18f2:	428b      	cmp	r3, r1
    18f4:	d328      	bcc.n	1948 <__udivsi3+0x6c>
    18f6:	0c03      	lsrs	r3, r0, #16
    18f8:	428b      	cmp	r3, r1
    18fa:	d30d      	bcc.n	1918 <__udivsi3+0x3c>
    18fc:	22ff      	movs	r2, #255	; 0xff
    18fe:	0209      	lsls	r1, r1, #8
    1900:	ba12      	rev	r2, r2
    1902:	0c03      	lsrs	r3, r0, #16
    1904:	428b      	cmp	r3, r1
    1906:	d302      	bcc.n	190e <__udivsi3+0x32>
    1908:	1212      	asrs	r2, r2, #8
    190a:	0209      	lsls	r1, r1, #8
    190c:	d065      	beq.n	19da <__udivsi3+0xfe>
    190e:	0b03      	lsrs	r3, r0, #12
    1910:	428b      	cmp	r3, r1
    1912:	d319      	bcc.n	1948 <__udivsi3+0x6c>
    1914:	e000      	b.n	1918 <__udivsi3+0x3c>
    1916:	0a09      	lsrs	r1, r1, #8
    1918:	0bc3      	lsrs	r3, r0, #15
    191a:	428b      	cmp	r3, r1
    191c:	d301      	bcc.n	1922 <__udivsi3+0x46>
    191e:	03cb      	lsls	r3, r1, #15
    1920:	1ac0      	subs	r0, r0, r3
    1922:	4152      	adcs	r2, r2
    1924:	0b83      	lsrs	r3, r0, #14
    1926:	428b      	cmp	r3, r1
    1928:	d301      	bcc.n	192e <__udivsi3+0x52>
    192a:	038b      	lsls	r3, r1, #14
    192c:	1ac0      	subs	r0, r0, r3
    192e:	4152      	adcs	r2, r2
    1930:	0b43      	lsrs	r3, r0, #13
    1932:	428b      	cmp	r3, r1
    1934:	d301      	bcc.n	193a <__udivsi3+0x5e>
    1936:	034b      	lsls	r3, r1, #13
    1938:	1ac0      	subs	r0, r0, r3
    193a:	4152      	adcs	r2, r2
    193c:	0b03      	lsrs	r3, r0, #12
    193e:	428b      	cmp	r3, r1
    1940:	d301      	bcc.n	1946 <__udivsi3+0x6a>
    1942:	030b      	lsls	r3, r1, #12
    1944:	1ac0      	subs	r0, r0, r3
    1946:	4152      	adcs	r2, r2
    1948:	0ac3      	lsrs	r3, r0, #11
    194a:	428b      	cmp	r3, r1
    194c:	d301      	bcc.n	1952 <__udivsi3+0x76>
    194e:	02cb      	lsls	r3, r1, #11
    1950:	1ac0      	subs	r0, r0, r3
    1952:	4152      	adcs	r2, r2
    1954:	0a83      	lsrs	r3, r0, #10
    1956:	428b      	cmp	r3, r1
    1958:	d301      	bcc.n	195e <__udivsi3+0x82>
    195a:	028b      	lsls	r3, r1, #10
    195c:	1ac0      	subs	r0, r0, r3
    195e:	4152      	adcs	r2, r2
    1960:	0a43      	lsrs	r3, r0, #9
    1962:	428b      	cmp	r3, r1
    1964:	d301      	bcc.n	196a <__udivsi3+0x8e>
    1966:	024b      	lsls	r3, r1, #9
    1968:	1ac0      	subs	r0, r0, r3
    196a:	4152      	adcs	r2, r2
    196c:	0a03      	lsrs	r3, r0, #8
    196e:	428b      	cmp	r3, r1
    1970:	d301      	bcc.n	1976 <__udivsi3+0x9a>
    1972:	020b      	lsls	r3, r1, #8
    1974:	1ac0      	subs	r0, r0, r3
    1976:	4152      	adcs	r2, r2
    1978:	d2cd      	bcs.n	1916 <__udivsi3+0x3a>
    197a:	09c3      	lsrs	r3, r0, #7
    197c:	428b      	cmp	r3, r1
    197e:	d301      	bcc.n	1984 <__udivsi3+0xa8>
    1980:	01cb      	lsls	r3, r1, #7
    1982:	1ac0      	subs	r0, r0, r3
    1984:	4152      	adcs	r2, r2
    1986:	0983      	lsrs	r3, r0, #6
    1988:	428b      	cmp	r3, r1
    198a:	d301      	bcc.n	1990 <__udivsi3+0xb4>
    198c:	018b      	lsls	r3, r1, #6
    198e:	1ac0      	subs	r0, r0, r3
    1990:	4152      	adcs	r2, r2
    1992:	0943      	lsrs	r3, r0, #5
    1994:	428b      	cmp	r3, r1
    1996:	d301      	bcc.n	199c <__udivsi3+0xc0>
    1998:	014b      	lsls	r3, r1, #5
    199a:	1ac0      	subs	r0, r0, r3
    199c:	4152      	adcs	r2, r2
    199e:	0903      	lsrs	r3, r0, #4
    19a0:	428b      	cmp	r3, r1
    19a2:	d301      	bcc.n	19a8 <__udivsi3+0xcc>
    19a4:	010b      	lsls	r3, r1, #4
    19a6:	1ac0      	subs	r0, r0, r3
    19a8:	4152      	adcs	r2, r2
    19aa:	08c3      	lsrs	r3, r0, #3
    19ac:	428b      	cmp	r3, r1
    19ae:	d301      	bcc.n	19b4 <__udivsi3+0xd8>
    19b0:	00cb      	lsls	r3, r1, #3
    19b2:	1ac0      	subs	r0, r0, r3
    19b4:	4152      	adcs	r2, r2
    19b6:	0883      	lsrs	r3, r0, #2
    19b8:	428b      	cmp	r3, r1
    19ba:	d301      	bcc.n	19c0 <__udivsi3+0xe4>
    19bc:	008b      	lsls	r3, r1, #2
    19be:	1ac0      	subs	r0, r0, r3
    19c0:	4152      	adcs	r2, r2
    19c2:	0843      	lsrs	r3, r0, #1
    19c4:	428b      	cmp	r3, r1
    19c6:	d301      	bcc.n	19cc <__udivsi3+0xf0>
    19c8:	004b      	lsls	r3, r1, #1
    19ca:	1ac0      	subs	r0, r0, r3
    19cc:	4152      	adcs	r2, r2
    19ce:	1a41      	subs	r1, r0, r1
    19d0:	d200      	bcs.n	19d4 <__udivsi3+0xf8>
    19d2:	4601      	mov	r1, r0
    19d4:	4152      	adcs	r2, r2
    19d6:	4610      	mov	r0, r2
    19d8:	4770      	bx	lr
    19da:	e7ff      	b.n	19dc <__udivsi3+0x100>
    19dc:	b501      	push	{r0, lr}
    19de:	2000      	movs	r0, #0
    19e0:	f000 f806 	bl	19f0 <__aeabi_idiv0>
    19e4:	bd02      	pop	{r1, pc}
    19e6:	46c0      	nop			; (mov r8, r8)

000019e8 <__aeabi_uidivmod>:
    19e8:	2900      	cmp	r1, #0
    19ea:	d0f7      	beq.n	19dc <__udivsi3+0x100>
    19ec:	e776      	b.n	18dc <__udivsi3>
    19ee:	4770      	bx	lr

000019f0 <__aeabi_idiv0>:
    19f0:	4770      	bx	lr
    19f2:	46c0      	nop			; (mov r8, r8)

000019f4 <__libc_init_array>:
    19f4:	b570      	push	{r4, r5, r6, lr}
    19f6:	4e0d      	ldr	r6, [pc, #52]	; (1a2c <__libc_init_array+0x38>)
    19f8:	4d0d      	ldr	r5, [pc, #52]	; (1a30 <__libc_init_array+0x3c>)
    19fa:	2400      	movs	r4, #0
    19fc:	1bad      	subs	r5, r5, r6
    19fe:	10ad      	asrs	r5, r5, #2
    1a00:	d005      	beq.n	1a0e <__libc_init_array+0x1a>
    1a02:	00a3      	lsls	r3, r4, #2
    1a04:	58f3      	ldr	r3, [r6, r3]
    1a06:	3401      	adds	r4, #1
    1a08:	4798      	blx	r3
    1a0a:	42a5      	cmp	r5, r4
    1a0c:	d1f9      	bne.n	1a02 <__libc_init_array+0xe>
    1a0e:	f001 fb27 	bl	3060 <_init>
    1a12:	4e08      	ldr	r6, [pc, #32]	; (1a34 <__libc_init_array+0x40>)
    1a14:	4d08      	ldr	r5, [pc, #32]	; (1a38 <__libc_init_array+0x44>)
    1a16:	2400      	movs	r4, #0
    1a18:	1bad      	subs	r5, r5, r6
    1a1a:	10ad      	asrs	r5, r5, #2
    1a1c:	d005      	beq.n	1a2a <__libc_init_array+0x36>
    1a1e:	00a3      	lsls	r3, r4, #2
    1a20:	58f3      	ldr	r3, [r6, r3]
    1a22:	3401      	adds	r4, #1
    1a24:	4798      	blx	r3
    1a26:	42a5      	cmp	r5, r4
    1a28:	d1f9      	bne.n	1a1e <__libc_init_array+0x2a>
    1a2a:	bd70      	pop	{r4, r5, r6, pc}
    1a2c:	0000306c 	.word	0x0000306c
    1a30:	0000306c 	.word	0x0000306c
    1a34:	0000306c 	.word	0x0000306c
    1a38:	00003074 	.word	0x00003074

00001a3c <register_fini>:
    1a3c:	4b03      	ldr	r3, [pc, #12]	; (1a4c <register_fini+0x10>)
    1a3e:	b510      	push	{r4, lr}
    1a40:	2b00      	cmp	r3, #0
    1a42:	d002      	beq.n	1a4a <register_fini+0xe>
    1a44:	4802      	ldr	r0, [pc, #8]	; (1a50 <register_fini+0x14>)
    1a46:	f000 f805 	bl	1a54 <atexit>
    1a4a:	bd10      	pop	{r4, pc}
    1a4c:	00000000 	.word	0x00000000
    1a50:	00001a65 	.word	0x00001a65

00001a54 <atexit>:
    1a54:	b510      	push	{r4, lr}
    1a56:	0001      	movs	r1, r0
    1a58:	2300      	movs	r3, #0
    1a5a:	2200      	movs	r2, #0
    1a5c:	2000      	movs	r0, #0
    1a5e:	f000 f81f 	bl	1aa0 <__register_exitproc>
    1a62:	bd10      	pop	{r4, pc}

00001a64 <__libc_fini_array>:
    1a64:	b570      	push	{r4, r5, r6, lr}
    1a66:	4b09      	ldr	r3, [pc, #36]	; (1a8c <__libc_fini_array+0x28>)
    1a68:	4c09      	ldr	r4, [pc, #36]	; (1a90 <__libc_fini_array+0x2c>)
    1a6a:	1ae4      	subs	r4, r4, r3
    1a6c:	10a4      	asrs	r4, r4, #2
    1a6e:	d009      	beq.n	1a84 <__libc_fini_array+0x20>
    1a70:	4a08      	ldr	r2, [pc, #32]	; (1a94 <__libc_fini_array+0x30>)
    1a72:	18a5      	adds	r5, r4, r2
    1a74:	00ad      	lsls	r5, r5, #2
    1a76:	18ed      	adds	r5, r5, r3
    1a78:	682b      	ldr	r3, [r5, #0]
    1a7a:	3c01      	subs	r4, #1
    1a7c:	4798      	blx	r3
    1a7e:	3d04      	subs	r5, #4
    1a80:	2c00      	cmp	r4, #0
    1a82:	d1f9      	bne.n	1a78 <__libc_fini_array+0x14>
    1a84:	f001 faf6 	bl	3074 <_fini>
    1a88:	bd70      	pop	{r4, r5, r6, pc}
    1a8a:	46c0      	nop			; (mov r8, r8)
    1a8c:	00003080 	.word	0x00003080
    1a90:	00003084 	.word	0x00003084
    1a94:	3fffffff 	.word	0x3fffffff

00001a98 <__retarget_lock_acquire_recursive>:
    1a98:	4770      	bx	lr
    1a9a:	46c0      	nop			; (mov r8, r8)

00001a9c <__retarget_lock_release_recursive>:
    1a9c:	4770      	bx	lr
    1a9e:	46c0      	nop			; (mov r8, r8)

00001aa0 <__register_exitproc>:
    1aa0:	b5f0      	push	{r4, r5, r6, r7, lr}
    1aa2:	464e      	mov	r6, r9
    1aa4:	4645      	mov	r5, r8
    1aa6:	46de      	mov	lr, fp
    1aa8:	4657      	mov	r7, sl
    1aaa:	b5e0      	push	{r5, r6, r7, lr}
    1aac:	4d36      	ldr	r5, [pc, #216]	; (1b88 <__register_exitproc+0xe8>)
    1aae:	b083      	sub	sp, #12
    1ab0:	0006      	movs	r6, r0
    1ab2:	6828      	ldr	r0, [r5, #0]
    1ab4:	4698      	mov	r8, r3
    1ab6:	000f      	movs	r7, r1
    1ab8:	4691      	mov	r9, r2
    1aba:	f7ff ffed 	bl	1a98 <__retarget_lock_acquire_recursive>
    1abe:	4b33      	ldr	r3, [pc, #204]	; (1b8c <__register_exitproc+0xec>)
    1ac0:	681c      	ldr	r4, [r3, #0]
    1ac2:	23a4      	movs	r3, #164	; 0xa4
    1ac4:	005b      	lsls	r3, r3, #1
    1ac6:	58e0      	ldr	r0, [r4, r3]
    1ac8:	2800      	cmp	r0, #0
    1aca:	d052      	beq.n	1b72 <__register_exitproc+0xd2>
    1acc:	6843      	ldr	r3, [r0, #4]
    1ace:	2b1f      	cmp	r3, #31
    1ad0:	dc13      	bgt.n	1afa <__register_exitproc+0x5a>
    1ad2:	1c5a      	adds	r2, r3, #1
    1ad4:	9201      	str	r2, [sp, #4]
    1ad6:	2e00      	cmp	r6, #0
    1ad8:	d128      	bne.n	1b2c <__register_exitproc+0x8c>
    1ada:	9a01      	ldr	r2, [sp, #4]
    1adc:	3302      	adds	r3, #2
    1ade:	009b      	lsls	r3, r3, #2
    1ae0:	6042      	str	r2, [r0, #4]
    1ae2:	501f      	str	r7, [r3, r0]
    1ae4:	6828      	ldr	r0, [r5, #0]
    1ae6:	f7ff ffd9 	bl	1a9c <__retarget_lock_release_recursive>
    1aea:	2000      	movs	r0, #0
    1aec:	b003      	add	sp, #12
    1aee:	bc3c      	pop	{r2, r3, r4, r5}
    1af0:	4690      	mov	r8, r2
    1af2:	4699      	mov	r9, r3
    1af4:	46a2      	mov	sl, r4
    1af6:	46ab      	mov	fp, r5
    1af8:	bdf0      	pop	{r4, r5, r6, r7, pc}
    1afa:	4b25      	ldr	r3, [pc, #148]	; (1b90 <__register_exitproc+0xf0>)
    1afc:	2b00      	cmp	r3, #0
    1afe:	d03d      	beq.n	1b7c <__register_exitproc+0xdc>
    1b00:	20c8      	movs	r0, #200	; 0xc8
    1b02:	0040      	lsls	r0, r0, #1
    1b04:	e000      	b.n	1b08 <__register_exitproc+0x68>
    1b06:	bf00      	nop
    1b08:	2800      	cmp	r0, #0
    1b0a:	d037      	beq.n	1b7c <__register_exitproc+0xdc>
    1b0c:	22a4      	movs	r2, #164	; 0xa4
    1b0e:	2300      	movs	r3, #0
    1b10:	0052      	lsls	r2, r2, #1
    1b12:	58a1      	ldr	r1, [r4, r2]
    1b14:	6043      	str	r3, [r0, #4]
    1b16:	6001      	str	r1, [r0, #0]
    1b18:	50a0      	str	r0, [r4, r2]
    1b1a:	3240      	adds	r2, #64	; 0x40
    1b1c:	5083      	str	r3, [r0, r2]
    1b1e:	3204      	adds	r2, #4
    1b20:	5083      	str	r3, [r0, r2]
    1b22:	3301      	adds	r3, #1
    1b24:	9301      	str	r3, [sp, #4]
    1b26:	2300      	movs	r3, #0
    1b28:	2e00      	cmp	r6, #0
    1b2a:	d0d6      	beq.n	1ada <__register_exitproc+0x3a>
    1b2c:	009a      	lsls	r2, r3, #2
    1b2e:	4692      	mov	sl, r2
    1b30:	4482      	add	sl, r0
    1b32:	464a      	mov	r2, r9
    1b34:	2188      	movs	r1, #136	; 0x88
    1b36:	4654      	mov	r4, sl
    1b38:	5062      	str	r2, [r4, r1]
    1b3a:	22c4      	movs	r2, #196	; 0xc4
    1b3c:	0052      	lsls	r2, r2, #1
    1b3e:	4691      	mov	r9, r2
    1b40:	4481      	add	r9, r0
    1b42:	464a      	mov	r2, r9
    1b44:	3987      	subs	r1, #135	; 0x87
    1b46:	4099      	lsls	r1, r3
    1b48:	6812      	ldr	r2, [r2, #0]
    1b4a:	468b      	mov	fp, r1
    1b4c:	430a      	orrs	r2, r1
    1b4e:	4694      	mov	ip, r2
    1b50:	464a      	mov	r2, r9
    1b52:	4661      	mov	r1, ip
    1b54:	6011      	str	r1, [r2, #0]
    1b56:	2284      	movs	r2, #132	; 0x84
    1b58:	4641      	mov	r1, r8
    1b5a:	0052      	lsls	r2, r2, #1
    1b5c:	50a1      	str	r1, [r4, r2]
    1b5e:	2e02      	cmp	r6, #2
    1b60:	d1bb      	bne.n	1ada <__register_exitproc+0x3a>
    1b62:	0002      	movs	r2, r0
    1b64:	465c      	mov	r4, fp
    1b66:	328d      	adds	r2, #141	; 0x8d
    1b68:	32ff      	adds	r2, #255	; 0xff
    1b6a:	6811      	ldr	r1, [r2, #0]
    1b6c:	430c      	orrs	r4, r1
    1b6e:	6014      	str	r4, [r2, #0]
    1b70:	e7b3      	b.n	1ada <__register_exitproc+0x3a>
    1b72:	0020      	movs	r0, r4
    1b74:	304d      	adds	r0, #77	; 0x4d
    1b76:	30ff      	adds	r0, #255	; 0xff
    1b78:	50e0      	str	r0, [r4, r3]
    1b7a:	e7a7      	b.n	1acc <__register_exitproc+0x2c>
    1b7c:	6828      	ldr	r0, [r5, #0]
    1b7e:	f7ff ff8d 	bl	1a9c <__retarget_lock_release_recursive>
    1b82:	2001      	movs	r0, #1
    1b84:	4240      	negs	r0, r0
    1b86:	e7b1      	b.n	1aec <__register_exitproc+0x4c>
    1b88:	20000428 	.word	0x20000428
    1b8c:	0000305c 	.word	0x0000305c
    1b90:	00000000 	.word	0x00000000

00001b94 <EVE_GT911_data>:
    1b94:	ffffff1a 00302020 00000004 00000002     ....  0.........
    1ba4:	ffffff22 0030b000 54edda78 45546fdd     ".....0.x..T.oTE
    1bb4:	b3333f14 6594a05d 2c054c6f a16f7b8d     .?3.]..eoL.,.{o.
    1bc4:	109adb0b e5111009 0b1a4b9c 03e3150d     .........K......
    1bd4:	b3b8fc10 2d8fdb2d 48907d29 47966443     ....-..-)}.HCd.G
    1be4:	241271bd a564a511 112010c6 80f0c495     .q.$..d... .....
    1bf4:	26a410a1 d100f036 260f8248 5242307d     ...&6...H..&}0BR
    1c04:	1f134c1e 8b2e67ac e304ff18 339ccc9d     .L...g.........3
    1c14:	e7ce6673 aa05dcef 4b89815e 5e62d8c2     sf......^..K..b^
    1c24:	79737567 7db1834c 7b527d59 8e3af33c     gusyL..}Y}R{<.:.
    1c34:	f3b9ccf2 e39c76bc eeeecb9b e5cdfbc3     .....v..........
    1c44:	a91c5c47 8f54b8be f4358971 57edb567     G\....T.q.5.g..W
    1c54:	e98971fd a5c60c30 198b68b5 729bfd54     .q..0....h..T..r
    1c64:	3600bf4a 3e0ca38a 1781cf83 1f5b22d9     J..6...>....."[.
    1c74:	a3f64180 9308d5af cb236bd5 6f036c5e     .A.......k#.^l.o
    1c84:	1853ab28 deb1a50f bc176174 2a96ce8c     (.S.....ta.....*
    1c94:	4e57b566 86aab656 1a79f1d7 4c02fcf3     f.WNV.....y....L
    1ca4:	de8bd973 8488adce b9233d51 2e177127     s.......Q=#.'q..
    1cb4:	36b24cc7 00e0b797 951cbd28 4f833ab6     .L.6....(....:.O
    1cc4:	224c1e98 d8a2ea62 27668d85 65c028aa     ..L"b.....f'.(.e
    1cd4:	bf92c935 b12c4d25 05d34ad1 0605bbce     5...%M,..J......
    1ce4:	60352fd8 6732167b 1154c0fb 38b9e34a     ./5`{.2g..T.J..8
    1cf4:	a15b336a 30a3b660 418b8dab 0b424298     j3[.`..0...A.BB.
    1d04:	4b9e2b66 b8935024 11708b93 6f67d8eb     f+.K$P....p...go
    1d14:	0a5cf5ef 2c28c2af 3b057d3a f5673270     ..\...(,:}.;p2g.
    1d24:	05c04e04 3c33c29c 6e4b86bf c02eedad     .N....3<..Kn....
    1d34:	73c09c79 4378dab8 0b2e733f e8610a66     y..s..xC?s..f.a.
    1d44:	b672eb32 29b27694 4d870cbc 600c7cca     2.r..v.)...M.|.`
    1d54:	eaa123ee f91781bd 19e68bd4 34cd3035     .#..........50.4
    1d64:	3575a35d 5551aa9a 4546b2a3 0ef1a742     ].u5..QU..FEB...
    1d74:	e201f12e c5b39888 fe94b83b 0f308431     ........;...1.0.
    1d84:	4cc089b0 6869c483 a05156a2 ad1affa5     ...L..ih.VQ.....
    1d94:	915689a2 37c0b7d2 3cd3c2af b8e6785b     ..V....7...<[x..
    1da4:	83291bae 1de0289b 10e8b357 a5073737     ..)..(..W...77..
    1db4:	a5175193 e0366531 6c51b44b 45e21d12     .Q..1e6.K.Ql...E
    1dc4:	e0af6ee1 2f19d42a ea6ec182 38fcd7c0     .n..*../..n....8
    1dd4:	2e18a24a 6a36aefb 090ef544 7816a09b     J.....6jD......x
    1de4:	1df068cf 1c8cb25a a62fdc18 d0fb3d70     .h..Z...../.p=..
    1df4:	ef386fc0 fbff5dee c120633e ebbe3d4b     .o8..]..>c .K=..
    1e04:	da6ee57b e14f55c2 ee14623b 0bdcebe3     {.n..UO.;b......
    1e14:	b41995dd 6f9fc274 d518c060 9cb38b3b     ....t..o`...;...
    1e24:	13e645d7 75872318 a2ceabce 3dea8143     .E...#.u....C..=
    1e34:	67680beb a7df4054 65a328fe 962b545c     ..hgT@...(.e\T+.
    1e44:	cddbf92e 5b0b7407 4b393d68 193008df     .....t.[h=9K..0.
    1e54:	defc771c f9563171 9cd3b44a a8d73db5     .w..q1V.J....=..
    1e64:	c7fb079d 5bfaf296 795e843a 8b973507     .......[:.^y.5..
    1e74:	99a50662 6e20d645 1f6564d3 62512d59     b...E. n.de.Y-Qb
    1e84:	c5cdcd17 c6ba6dd1 f9bf8d23 df843c19     .....m..#....<..
    1e94:	1462fb99 148b92ef fa29fad9 5ab13a89     ..b.......)..:.Z
    1ea4:	6c334f39 c2fd14e9 cdde31bb 30608d72     9O3l.....1..r.`0
    1eb4:	366bdbaf 9a168a6f 3a4f6c67 4fb2b3fc     ..k6o...glO:...O
    1ec4:	9902c3a4 c7aa2724 55c5a7c9 b13b086a     ....$'.....Uj.;.
    1ed4:	02382e51 11724be6 41bc7037 724d89d0     Q.8..Kr.7p.A..Mr
    1ee4:	3a37730a 7aadc5d0 6e8c0657 a37cd02a     .s7:...zW..n*.|.
    1ef4:	68f16c46 d662f512 2a3586bb 85b616dd     Fl.h..b...5*....
    1f04:	b19474d3 55c0d1c2 373ac75a 13e502cb     .t.....UZ.:7....
    1f14:	e4a1bb89 91cb709a dcbcf47d c929e476     .....p..}...v.).
    1f24:	90c329b5 5033b7d7 10d915fa 6debc8d9     .)....3P.......m
    1f34:	da7abce3 e0aa3c8e 82b8f070 0571e0e5     ..z..<..p.....q.
    1f44:	50a394df bb82b7a5 ee407484 73dc55a1     ...P.....t@..U.s
    1f54:	e362cd8b 7d661df4 7bf32507 5c1a0bdf     ..b...f}.%.{...\
    1f64:	3d74f33f f47b8abf 4aba54a0 f7ae051f     ?.t=..{..T.J....
    1f74:	f8c78777 61f287fd 90be9166 ddee550e     w......af....U..
    1f84:	309ec1e7 f87819cd 9e1ddc0f 1eb94609     ...0..x......F..
    1f94:	fe21e567 aca0ed17 de5ac13e c80ee8e0     g.!.....>.Z.....
    1fa4:	8e685a38 066e78e3 41cbd315 dc976396     8Zh..xn....A.c..
    1fb4:	32a457f7 eaef319f 6d008e3a 4f127b6c     .W.2.1..:..ml{.O
    1fc4:	f86424e3 7f60cdde e4ab1a78 11243f45     .$d...`.x...E?$.
    1fd4:	7411c8fc 58e3bbf2 4b02f78f 3b8206bf     ...t...X...K...;
    1fe4:	f0370bbc 987af31f 9acfb7e2 db27bc49     ..7...z.....I.'.
    1ff4:	57de692b 8c8d8f29 b87049af 10b83dfc     +i.W)....Ip..=..
    2004:	a823fa5a 39b07752 96c85e74 2cb3be16     Z.#.Rw.9t^.....,
    2014:	54eb0c68 59fc6695 e463c19a f87df26a     h..T.f.Y..c.j.}.
    2024:	dfffc240 0b53f27f d64602ff 000080e2     @.....S...F.....

00002034 <EVE_GT911_len>:
    2034:	000004a0 65747942 00003a73 732d4c44     ....Bytes:..DL-s
    2044:	3a657a69 00000000 656d6954 00003a31     ize:....Time1:..
    2054:	656d6954 00003a32 00007375 63756f54     Time2:..us..Touc
    2064:	00002168                                h!..

00002068 <pic>:
    2068:	e0ffd8ff 464a1000 01004649 60000101     ......JFIF.....`
    2078:	00006000 4300dbff 04030500 05030404     .`.....C........
    2088:	05040404 07060505 0707080c 0b0f0707     ................
    2098:	110c090b 1112120f 1311110f 13171c16     ................
    20a8:	11151a14 18211811 1f1d1d1a 17131f1f     ......!.........
    20b8:	1e222422 1f1e1c24 00dbff1e 05050143     "$".$.......C...
    20c8:	07060705 0e08080e 1411141e 1e1e1e1e     ................
    20d8:	1e1e1e1e 1e1e1e1e 1e1e1e1e 1e1e1e1e     ................
    20e8:	1e1e1e1e 1e1e1e1e 1e1e1e1e 1e1e1e1e     ................
    20f8:	1e1e1e1e 1e1e1e1e 1e1e1e1e c0ff1e1e     ................
    2108:	00081100 03640064 02002201 11030111     ....d.d.."......
    2118:	00c4ff01 0001001b 01010103 00000001     ................
    2128:	00000000 05000000 03040706 c4ff0108     ................
    2138:	00103b00 03030301 03040402 00070406     .;..............
    2148:	01000000 00110302 12060504 13310721     ............!.1.
    2158:	32614122 14817151 42081715 e2d29154     "Aa2Qq.....BT...
    2168:	c1a49366 52242316 ffa19482 011b00c4     f....#$R........
    2178:	03000300 00000101 00000000 00000000     ................
    2188:	03060500 02010704 3600c4ff 02010011     ...........6....
    2198:	06030404 01050504 00000000 03020100     ................
    21a8:	11050400 51413121 13711206 91816122     ....!1AQ..q."a..
    21b8:	b1a114f0 d14215c1 2316f1e1 d2b23332     ......B....#23..
    21c8:	0c00daff 02000103 00110311 2efb003f     ............?...
    21d8:	4210a594 4210a594 5deef5a0 92213d58     ...B...B...]X=!.
    21e8:	a5a5b6c9 692999d6 2e254849 c1a08428     ......)iIH%.(...
    21f8:	278802e2 9553e7db 79d1fe90 b8718664     ...'..S....yd.q.
    2208:	a582d426 0a3add28 2981e44e 65d01e44     &...(.:.N..)D..e
    2218:	76e0777c e730c3f5 3454d966 64fc49a3     |w.v..0.f.T4.I.d
    2228:	85116df3 4f0c7aee 918e14e9 d788d565     .m...z.O....e...
    2238:	b0dc0a96 0abfdad5 2a414ae8 cf91800b     .........JA*....
    2248:	3161bf61 7db50fcc 6b365f2b 2ebc328d     a.a1...}+_6k.2..
    2258:	b9750f0f 83d7a0b2 a4bdb571 82b554b8     ..u.....q....T..
    2268:	6f07af4f d007c23c 2c3fba6f c798e69c     O..o<...o.?,....
    2278:	549042e5 b1b920fb 38382424 01f30058     .B.T. ..$$88X...
    2288:	adb78f40 b34ea32c 2a2dd934 8af3dde3     @...,.N.4.-*....
    2298:	1f422d0e c85ae7ec e1c827dd 524b8ceb     .-B...Z..'....KR
    22a8:	1731a794 4194520a 4194520a 4194520a     ..1..R.A.R.A.R.A
    22b8:	4194520a 1d75c10a 5947b5c2 8df35f8b     .R.A..u...GY._..
    22c8:	0ade9bbd 120ad046 3d7295d4 3c19f70a     ....F.....r=...<
    22d8:	058e03c1 2cc39a6c c8981e9c 14904a65     ....l..,....eJ..
    22e8:	bdb724c3 78b8a424 05732040 a5bf0f44     .$..$..x@ s.D...
    22f8:	b31a1d63 cc911542 6d2825dc ead286a4     c...B....%(m....
    2308:	cbfb018c cfdb40fa b8a6d6bf e4e173a6     .....@.......s..
    2318:	b7c86c57 7feb03ae e6e1ab28 ceef12c3     Wl......(.......
    2328:	3aca41ab 8b30fd9c fcb0bca6 b0df49c3     .A.:..0......I..
    2338:	2dadb510 ee0888f8 d7479e54 fdf16ab7     ...-....T.G..j..
    2348:	3e5ef29d 2dc6be9c 9776296f 32eec401     ..^>...-o)v....2
    2358:	8463a194 c93c9ea7 dcdf2359 d5983ed7     ..c...<.Y#...>..
    2368:	2bf2666f b7b7bcb0 4509bf69 e6c91590     of.+....i..E....
    2378:	8cf89976 1e3bda13 9e7e553e d52f0d5c     v.....;.>U~.\./.
    2388:	4adde3a5 c5e1625a 518179da 6e0a5909     ...JZb...y.Q.Y.n
    2398:	2024f720 9f099e49 30e19c98 72693ee5      .$ I......0.>ir
    23a8:	bd82e78e b0a18f45 2d93698f b62fe955     ....E....i.-U./.
    23b8:	782fbfc9 faf26779 4a00ffc6 4944ba52     ../xyg.....JR.DI
    23c8:	10a594c2 10a59442 cdfa6d46 cb803fa6     ....B...Fm...?..
    23d8:	df9400ff 9bf5d3f5 97037f4c bf2900ff     ........L.....).
    23e8:	5147aaeb 817d653a e1f02ff1 1b5aeceb     ..GQ:e}../....Z.
    23f8:	0551e1de 702762d6 c87ab811 8998091c     ..Q..b'p..z.....
    2408:	099d0a2d 8eb3c797 6f91e2c9 d096de99     -..........o....
    2418:	b7ed1daf 5488d833 18845e25 c03b9e04     ....3..T%^....;.
    2428:	fc3a334b 8fa514ba b1b517f1 0f3ada36     K3:.........6.:.
    2438:	cb6534e1 a5529609 88535ea7 b3b730ea     .4e...R..^S..0..
    2448:	c8683196 0fc5aef5 5cc18f81 95b7355c     .1h........\\5..
    2458:	4169f03e 5c01285f d57ee676 feddfacb     >.iA_(.\v.~.....
    2468:	5b00ff1a 8b3b95fd d87a1ad2 3d6cabad     ...[..;...z...l=
    2478:	0fd0cba2 dd5e3c8e f776aea0 4cae89f4     .....<^...v....L
    2488:	11373ac3 f1ef6c7a 099fb6f8 a205520a     .:7.zl.......R..
    2498:	690f5256 db0793da 94a9f3e9 8ecf7371     VR.i........qs..
    24a8:	a4567679 db3312ee 5fd7c20b fd71f9e1     yvV...3...._..q.
    24b8:	2a37acc6 4cd1deb7 9d5207ea e23458d5     ..7*...L..R..X4.
    24c8:	c12ec6db 715c323e 0e2bba49 23e50324     ....>2\qI.+.$..#
    24d8:	3f48e268 b4968a54 29dde447 9f861269     h.H?T...G..)i...
    24e8:	913248bd 3c43fc3b e3c3dff1 bbaef4ed     .H2.;.C<........
    24f8:	65859ebc 56f1b6b0 da982477 1e418add     ...e...Vw$....A.
    2508:	430560fe 6f413deb 76a34d9b 0d6db989     .`.C.=Ao.M.v..m.
    2518:	c0a51515 1ec42400 f3cfed09 898949ad     .....$.......I..
    2528:	a5ecbbaa 859454c6 d236925c 1207f112     .....T..\.6.....
    2538:	523145d3 d81a3692 339cf82a 447abef3     .E1R.6..*..3..zD
    2548:	31f71556 d70b7bb9 c46f990a 2051de0a     V..1.{....o...Q 
    2558:	232a25b7 1c6e448e 76ad8f7c 56d582f5     .%*#.Dn.|..v...V
    2568:	bd0cfb39 5e9785ab a5dcc447 0b916d41     9......^G...Am..
    2578:	2305eb91 b11a00ff a34d2ff5 6fb0a613     ...#...../M....o
    2588:	b6928636 e533fc1b a3dc512b 9b3e912b     6.....3.+Q..+.>.
    2598:	f1e943bc 7a3bb70f 2af606af 8f29cfd6     .C....;z...*..).
    25a8:	4853beb8 48ebf246 c1841570 fb5d9957     ..SHF..Hp...W.].
    25b8:	b55beff3 67e57799 05659a9a 0d280456     ..[..w.g..e.V.(.
    25c8:	2ec2f9b4 8322ab11 4de6b632 dc7a6093     ......".2..M.`z.
    25d8:	919e3e62 02dd3aea f5afe13f d64fd9bf     b>...:..?.....O.
    25e8:	fad7f0ef 6fafecdf e01fe8c6 1ffadff1     .......o........
    25f8:	9c5853db 58c99c2e 8961637e 146e3dc5     .SX....X~ca..=n.
    2608:	9be15741 08428fe0 f5887d90 aa3f3a1f     AW....B..}...:?.
    2618:	97b90027 dd7d865d b9cd223d 5c751cfe     '...].}.="....u\
    2628:	f009b4ad d400ff59 a3755971 2a64bb04     ....Y...qYu...d*
    2638:	659117f7 d6903bf3 e23912c7 78925414     ...e.;....9..T.x
    2648:	df5e418f f863daac 4df9bf1c 725d00ff     .A^...c....M..]r
    2658:	8d96b464 2bf943b7 322c7bfc 5e795c82     d....C.+.{,2.\y^
    2668:	6442892b 93da00ff 010093c0 ab1d00ea     +.Bd............
    2678:	c20ad537 1b2733e5 c3fa74a3 88db5041     7....3'..t..AP..
    2688:	f0f3382f a392900c 9e88f509 06249124     /8..........$.$.
    2698:	a8f9ca94 10684ba1 fa8c1806 52d6f05a     .....Kh.....Z..R
    26a8:	519c4995 1a58daec 9d47f79b d47800ff     .I.Q..X...G...x.
    26b8:	b45900ff 8f19f0c7 00ff4db3 4d372a5d     ..Y......M..]*7M
    26c8:	ccc96e74 0bea4e43 97efd6cb ae5653e6     tn..CN.......SV.
    26d8:	e8b12520 9f4c4a92 097a1c99 0c762a89      %...JL...z..*v.
    26e8:	34c217d9 a10d475c b6513765 676bb4d7     ...4\G..e7Q...kg
    26f8:	85baca9a 3f2f96d2 6db3f4eb 2937be5a     ....../?...mZ.7)
    2708:	842855db 3dcadc39 e1886712 e718be3d     .U(.9..=.g..=...
    2718:	b86da555 50165dd2 8c0ab989 a39d83c4     U.m..].P........
    2728:	43e3b60a bacf47d4 62df5d4f 51330eee     ...C.G..O].b..3Q
    2738:	87e4e1a6 a4f3568a 77329997 a0ca0305     .....V....2w....
    2748:	f83dc7fd 3ad56c15 d334df6e ca075b99     ..=..l.:n.4..[..
    2758:	1442dcee bc2d5888 f4412090 8e194424     ..B..X-.. A.$D..
    2768:	fa5ae43d daf1a183 e2b2d9ba 7c0900ff     =.Z............|
    2778:	255d0dd7 e5d98e1b 0e37122a b707cff1     ..]%....*.7.....
    2788:	67410e72 79faa879 5b193699 a5645777     r.Agy..y.6.[wWd.
    2798:	5b32ed94 6d250870 8f3cf128 da0304e7     ..2[p.%m(.<.....
    27a8:	7e43a916 2139e34d 2b1ab582 18787fcb     ..C~M.9!...+..x.
    27b8:	909299a3 6d0846e2 53662e21 d9df49f7     .....F.m!.fS.I..
    27c8:	7569fbdc c5722de1 f360499d 6af8a8ac     ..iu.-r..I`....j
    27d8:	c123c521 1c29c933 81274e9f ae15133c     !.#.3.)..N'.<...
    27e8:	208de859 7cab1b7c c3a46e6b 5ac7ab8d     Y.. |..|kn.....Z
    27f8:	18dca1d0 fe8f202a 4beba91a 4d53766c     ....* .....KlvSM
    2808:	ecb52e23 b02e6528 25954ce8 ec835270     #...(e...L.%pR..
    2818:	4f421f49 41f4c8bc 2fe2f5cb 558af352     I.BO...A.../R..U
    2828:	36a56e93 554290e0 500fac04 72f94939     .n.6..BU...P9I.r
    2838:	509cd663 10d46d6a 81118b6e f7756404     c..Pjm..n....du.
    2848:	4814739c 84bf0909 c4572179 be8e0b1b     .s.H....y!W.....
    2858:	be6b00ff 97611763 1b7936b2 e0c6be64     ..k.c.a..6y.d...
    2868:	4190a4ad 9023881d 54339f7e d08151dd     ...A..#.~.3T.Q..
    2878:	37c9763a 12d5f837 9bb6b5b3 9fb5c27d     :v.77.......}...
    2888:	81430558 8adc7fea ab1756bf d47b7351     X.C......V..Qs{.
    2898:	0ff3ac47 0dba0a3d 96126c23 7a807c94     G...=...#l...|.z
    28a8:	327f0401 cc692648 a261c8f3 e1ed85e2     ...2H&i...a.....
    28b8:	14aa67b4 b0212921 12d828a5 84151106     .g..!)!..(......
    28c8:	ca9a3bc4 2d449b29 5aa960ab 91f0e6d7     .;..).D-.`.Z....
    28d8:	72e3493c 09fb94bf 78b7c38b 69820f8d     <I.r.......x...i
    28e8:	58dda7ab 02b5935b 0266755c 0048528a     ...X[...\uf..RH.
    28f8:	1ca80700 e5f3640e 9a56f3ab 2cca0e3b     .....d....V.;..,
    2908:	3f0fda6c 98b06129 5400a44c 47f0e4a8     l..?)a..L..T...G
    2918:	35f7f9b9 17dad158 d52ead39 dc5ccf97     ...5X...9.....\.
    2928:	95125adb 9d475c07 d85061f0 e1c1043c     .Z...\G..aP.<...
    2938:	07881c51 b96d8098 e472219e 5a0eb014     Q.....m..!r....Z
    2948:	b187afab c35d318e 202d2dbc 2ecec6cf     .....1]..-- ....
    2958:	12fc7dc3 7bc4f93e 49fdd408 686fbbcd     .}..>..{...I..oh
    2968:	42442b7c 0bb516ca bb9d0076 24a372a0     |+DB....v....r.$
    2978:	d893494c 0f8d360e 56faf0a2 af117ed8     LI...6.....V.~..
    2988:	846df516 89bf743f ecc064ce e4833e91     ..m.?t...d...>..
    2998:	9c9a4826 f1ec63c5 2c6cf678 6c6fd12d     &H...c..x.l,-.ol
    29a8:	84b676ca 00ff008e e449ea73 d5744d9e     .v......s.I..Mt.
    29b8:	a93d95ec 3210c246 a56a46f9 f6b4c975     ..=.F..2.Fj.u...
    29c8:	86468e0c f4bb5e83 520ae7fa 6108bf95     ..F..^.....R...a
    29d8:	2188524a 49f53f5f b07aa8e1 19e25f8c     JR.!_?.I..z.._..
    29e8:	9b714843 368fbc14 aba820d9 b5544a9e     CHq....6. ...JT.
    29f8:	15ed3802 33dd5fbd 79716363 860dbf72     .8..._.3ccqyr...
    2a08:	2a8e531b 8994da09 81270726 d0490f58     .S.*....&.'.X.I.
    2a18:	5e5b53f6 abcbae66 79dcb675 8510a54e     .S[^f...u..yN...
    2a28:	42dae13a a99440a0 0f1f07c2 c49a52b4     :..B.@.......R..
    2a38:	2ad865ca e9134056 9e307c15 7f383fc4     .e.*V@...|0..?8.
    2a48:	9f3a6c22 7e16e7e3 df225ca7 c2606913     "l:....~.\"..i`.
    2a58:	e4b8143c b6363484 c0f08110 1e9892f4     <....46.........
    2a68:	8bcdd5de bde9edd5 162fce24 7d9155c2     ........$./..U.}
    2a78:	f7f7752a 514a4bee 15e4c0f2 80e3096c     *u...KJQ....l...
    2a88:	c29d4c0c cd8e3abc b5a1cedd deb761b6     .L...:.......a..
    2a98:	1b72db26 79bf4a42 c91e4052 52ede9e7     &.r.BJ.yR@.....R
    2aa8:	da4e775a be8c5260 c88bf659 874a5040     ZwN.`R..Y...@PJ.
    2ab8:	99778595 f67a20f5 0a984806 fb54eaa8     ..w.. z..H....T.
    2ac8:	5d6a9a54 dce55d75 a07353db 8e726ce9     T.j]u]...Ss..lr.
    2ad8:	e4cc3277 2ec155fd b06fb232 fdfaccd7     w2...U..2.o.....
    2ae8:	a81b2362 ee0656f5 f57a23cf c2b5c5ed     b#...V...#z.....
    2af8:	97ab2537 893aa454 9e7626e6 41f01ec4     7%..T.:..&v....A
    2b08:	f5791ee4 2fd356ce 63ceb695 1e77abd2     ..y..V./...c..w.
    2b18:	433a3e69 833c749e b2db581f a81f0008     i>:C.t<..X......
    2b28:	752c5a20 ed36074e 366e29d6 ede1a352      Z,uN.6..)n6R...
    2b38:	ded1e159 4726d247 4de42762 3b695363     Y...G.&Gb'.McSi;
    2b48:	1617609c 63cbcb65 3c6aabb8 cd2701cd     .`..e..c..j<..'.
    2b58:	f77ec41d c4818c1d 0a7148ee 7d960927     ..~......Hq.'..}
    2b68:	05390a25 4dac7c6b 7cb4f0b1 f433a8d6     %.9.k|.M...|..3.
    2b78:	d44df9d6 10230e8c d6f4e977 668d3a27     ..M...#.w...':.f
    2b88:	fc85de8c e2a3ddc6 6817a55b 5038b796     ........[..h..8P
    2b98:	3e322944 7bdc0a11 89b4278f bf6481ae     D)2>...{.'....d.
    2ba8:	6295a217 c6beb3b5 124a68e1 e715db7c     ...b.....hJ.|...
    2bb8:	559f500a 3e1e6029 ba5c631f a37fa335     .P.U)`.>.c\.5...
    2bc8:	53bcb35b 9df669e8 2a484e61 24a9a82d     [..S.i..aNH*-..$
    2bd8:	4860bfa7 763b3d12 ee42c7aa abebc39f     ..`H.=;v..B.....
    2be8:	fce20dfc dadabc15 2f153053 84dbae34     ........S0./4...
    2bf8:	eb894ff6 f78adf07 79ec1d85 51e48fe5     .O.........y...Q
    2c08:	7cc4914f 51221def aca051c3 b1cad31c     O..|.."Q.Q......
    2c18:	fafb31e6 524ae9c6 144aa2ae 148228a5     .1....JR..J..(..
    2c28:	298228a5 7ec96e1d 5b6ea05f 9743de4a     .(.).n.~_.n[J.C.
    2c38:	0add228e dc49c46c 52ec79a0 8e790f95     ."..l.I..y.R..y.
    2c48:	0ee959d5 405a3635 2e9e1d5f 942ce541     .Y..56Z@_...A.,.
    2c58:	82864f92 80679050 8f877877 2fda2742     .O..P.g.wx..B'./
    2c68:	b5c988f6 62c79d71 6855d89b 49719cca     ....q..b..Uh..qI
    2c78:	235c905c 01a147ca 0f85fb00 e7bae3bf     \.\#.G..........
    2c88:	65616b1d b7b6d382 6db74a77 5852c816     .kae....wJ.m..RX
    2c98:	7321fe0d 92484905 c8551237 fea849dc     ..!s.IH.7.U..I..
    2ca8:	12f34b28 728169eb 3b773e6c 277b3174     (K...i.rl>w;t1{'
    2cb8:	e100ff20 71dab40d 6b474571 0c7dae0c      ......qqEGk..}.
    2cc8:	a746f55c 8f63c3b5 6d09e18e f1039430     \.F...c....m0...
    2cd8:	e71ef328 bdd3dbdb bdd83152 837cd449     (.......R1..I.|.
    2ce8:	1b772a8a 2d0f8984 40820ba9 326f1c09     .*w....-...@..o2
    2cf8:	4760800c b4d8c43c af6f4e87 6bcdda6f     ..`G<....No.o..k
    2d08:	428a0337 a0f1a6d4 d09e3685 38224154     7..B.....6..TA"8
    2d18:	247e47f8 2c6a459e 08bbd532 d3d08661     .G~$.Ej,2...a...
    2d28:	0825a44d 03296142 851d0080 bf70a262     M.%.Ba).....b.p.
    2d38:	e9fc5264 b6b558e6 4f076400 dab9d0e2     dR...X...d.O....
    2d48:	1434b58c 6a6e594a cf4d07ad 37635d8e     ..4.JYnj..M..]c7
    2d58:	128ff4cf c88f3de6 7f1f731f b53a246e     .....=...s..n$:.
    2d68:	01e561a9 a67ceec6 c4913240 2be2299f     .a....|.@2...).+
    2d78:	95571d18 0fc3f7d3 b69e6daa 71e5397c     ..W......m..|9.q
    2d88:	4822da68 3812ed99 b97d9050 4e54b935     h."H...8P.}.5.TN
    2d98:	9dd8d3a7 9e5d8f47 ca0ed552 07d06d48     ....G.].R...Hm..
    2da8:	ca31d188 1e78e815 c59139c6 6550ab38     ..1...x..9..8.Pe
    2db8:	42d92daa 981119ca ea4a598d 7bc69e94     .-.B.....YJ....{
    2dc8:	e6af83be 0cbd0e1d 37f5a244 56e8b6cc     ........D..7...V
    2dd8:	f5d906e2 c97a1ffa 2ffdc6b5 3633f6d4     ......z..../..36
    2de8:	6eab0bbf 54b721f8 ea30a992 a4dcf449     ...n.!.T..0.I...
    2df8:	5788b4af 38f2a5da d7d34bbd e6d4f254     ...W...8.K..T...
    2e08:	24360c53 3585a35c 2649413c 0f1f1107     S.6$\..5<AI&....
    2e18:	2a26c8c3 1e75afb7 ede35233 dbb5699f     ..&*..u.3R...i..
    2e28:	5b3a5adf 2fc1a6da 3b83a434 07aa6d87     .Z:[.../4..;.m..
    2e38:	90e367ca 2695d47b 9f4fa142 82183371     .g..{..&B.O.q3..
    2e48:	32727b07 00ffb5f3 49a4a558 d1cc3f72     .{r2....X..Ir?..
    2e58:	826065e7 31e38e47 f4d1bef6 a5013290     .e`.G..1.....2..
    2e68:	924b3a55 6340cffc 2ed9521c d6e1df30     U:K...@c.R..0...
    2e78:	b0c3cf96 f03c48ed de4f424a d7b51a7b     .....H<.JBO.{...
    2e88:	92b94248 7f8e3514 dea5c234 24cd4a5b     HB...5..4...[J.$
    2e98:	9452488f 0ac1a8af 1f419452 f52af52e     .HR.....R.A...*.
    2ea8:	9a7bfddb 2aa1e479 1bd9da45 9dad0d44     ..{.y..*E...D...
    2eb8:	44c2fb89 d2d7d6fb c58423cd 66f93160     ...D.....#..`1.f
    2ec8:	eb6bbc6d 14ae66bb 36a5d0fb a394d854     m.k..f.....6T...
    2ed8:	1ff3288f c5933c73 40a54a29 8cbf0a33     .(..s<..)J.@3...
    2ee8:	5a206e74 10b2a39b c348086c d2bb086b     tn Z....l.H.k...
    2ef8:	ceb1a694 88524a61 0d224020 d2705d60     ....aJR. @".`]p.
    2f08:	903f9df8 b6c5bbb2 4f4146b6 1e41c629     ..?......FAO).A.
    2f18:	7c760a1a 71073802 81f23131 535a29c5     ..v|.8.q11...)ZS
    2f28:	8a5776c0 855a0fae 081c9443 ec178b37     .vW...Z.C...7...
    2f38:	ecfa74df 5c6a56b3 b88cd3b0 4be1c084     .t...Vj\.......K
    2f48:	df330a0b 00ff8490 4ae9d62a 94fe27c9     ..3.....*..J.'..
    2f58:	f834d6fb 7654019c 21f21fde 61b6524a     ..4...Tv...!JR.a
    2f68:	d9ff7f0c                                ....

00002f6c <logo>:
    2f6c:	d2dd9c78 20c316bb 7cd0030c 21de9f3a     x...... ...|:..!
    2f7c:	46025243 534e6592 7462e865 4c38f479     CR.F.eNSe.bty.8L
    2f8c:	476fb769 3a54419a 1dc5e4de 79d5f1ed     i.oG.AT:.......y
    2f9c:	b0f34b4f 4d76b18e b8b7d6ab ad73f0d6     OK....vM......s.
    2fac:	e5cc8cf6 c3d2b1ee e74fea3b dd8ee2f7     ........;.O.....
    2fbc:	c68b3e1e 3fb53a73 0f0df96e 578dab0d     .>..s:.?n......W
    2fcc:	d5a739e0 b24e621b ef9932f2 b1ebfefe     .9...bN..2......
    2fdc:	d0aadb94 bfee3c6a d22f36f7 08abddfe     ....j<...6/.....
    2fec:	80b7c5e6 749d19ef e626f379 7b1ef21e     .......ty.&....{
    2ffc:	166f39f3 c4b7d787 765c7871 88e8ac7b     .9o.....qx\v{...
    300c:	d8ad5bdf 9722e1ed ebc38568 1915e267     .[....".h...g...
    301c:	dab93c6f 27cde6a1 bc611bd1 9e734bec     o<.....'..a..Ks.
    302c:	a8a8d2fa 8d62aa4e fb0abd87 e7588ad2     ....N.b.......X.
    303c:	4f50fb8d 6faf6ecd 585cbcc5 f3c61f2f     ..PO.n.o..\X/...
    304c:	197cf504 574855f7 f00f98b7 009f8997     ..|..UHW........

0000305c <_global_impure_ptr>:
    305c:	20000000                                ... 

00003060 <_init>:
    3060:	b5f8      	push	{r3, r4, r5, r6, r7, lr}
    3062:	46c0      	nop			; (mov r8, r8)
    3064:	bcf8      	pop	{r3, r4, r5, r6, r7}
    3066:	bc08      	pop	{r3}
    3068:	469e      	mov	lr, r3
    306a:	4770      	bx	lr

0000306c <__init_array_start>:
    306c:	00001a3d 	.word	0x00001a3d

00003070 <__frame_dummy_init_array_entry>:
    3070:	000000e5                                ....

00003074 <_fini>:
    3074:	b5f8      	push	{r3, r4, r5, r6, r7, lr}
    3076:	46c0      	nop			; (mov r8, r8)
    3078:	bcf8      	pop	{r3, r4, r5, r6, r7}
    307a:	bc08      	pop	{r3}
    307c:	469e      	mov	lr, r3
    307e:	4770      	bx	lr

00003080 <__fini_array_start>:
    3080:	000000bd 	.word	0x000000bd
